((dp0
S'arm_dbg_args'
p1
S'-via:"c:\\Marmalade\\7.4\\examples\\GameTutorial\\CPP\\Stage1\\build_stage1_vc10x\\Stage1_vc10x_arm_debug.via" -qemu'
p2
sS'game-icf'
p3
S''
p4
sS'dist'
p5
NsS'csproj'
p6
g4
sS'module_path_append'
p7
NsS'global_path'
p8
S'c:\\marmalade\\7.4\\examples\\gametutorial\\cpp'
p9
sS'system_path'
p10
S'c:\\marmalade\\7.4\\s3e\\makefile_builder'
p11
sS'android_x86_dbg_args'
p12
S'../../tools/DeployTool/DeployTool.exe --dir "c:\\Marmalade\\7.4\\examples\\GameTutorial\\CPP\\Stage1\\build_stage1_vc10x"'
p13
sS'no-emit'
p14
NsS'arm-float-abi'
p15
g4
sS'arm_rel_rtsm_args'
p16
S'-via:"c:\\Marmalade\\7.4\\examples\\GameTutorial\\CPP\\Stage1\\build_stage1_vc10x\\Stage1_vc10x_arm_release.via" -qemu'
p17
sS'amd64'
p18
NsS'line-width'
p19
I80
sS'gcc_dbg_args'
p20
S'-via:"c:\\Marmalade\\7.4\\examples\\GameTutorial\\CPP\\Stage1\\build_stage1_vc10x\\Stage1_vc10x_gcc_debug.via" -qemu'
p21
sS'android-x86'
p22
NsS'x86_dbg_exe'
p23
S'c:/marmalade/7.4/s3e\\win32\\s3e_simulator_debug.exe'
p24
sS'disable-runtime-checks'
p25
NsS'release'
p26
NsS'no-make'
p27
NsS'xcode-x86-build-settings'
p28
g4
sS'optimise-size'
p29
NsS'output-name-debug'
p30
g4
sS'arm-fpu'
p31
g4
sS'proj_name'
p32
S'Stage1_vc10x'
p33
sS'rvct-version'
p34
S'none'
p35
sS'compiler'
p36
g4
sS'execute'
p37
I01
sS'compile-static'
p38
NsS'msvc-project'
p39
NsS'buildenv'
p40
S'VC10X'
p41
sS'quick'
p42
NsS'module_path'
p43
NsS'mkf_default'
p44
S's3e-default.mkf'
p45
sS'use-release-std-libs'
p46
NsS'using_perforce'
p47
I00
sS'tizen-x86'
p48
NsS'mips-s3e'
p49
NsS's3e-api-lib-name'
p50
S's3e_api_iwgl'
p51
sS'ios-no-pic'
p52
NsS'shared-arm-lib'
p53
NsS'arm-cpu'
p54
g4
sS'compile-thumb'
p55
NsS'no-ide'
p56
I01
sS'msvc-version'
p57
S'6.0'
p58
sS'arm'
p59
NsS'builddir'
p60
g4
sS'compile-debug-as-release'
p61
I0
sS'arm-arch'
p62
g4
sS'brief'
p63
NsS'dll'
p64
NsS'buildenv-toolset'
p65
g4
sS'version'
p66
NsS'ccache'
p67
I0
sS'offline'
p68
NsS'ios-version'
p69
g4
sS'hub_data'
p70
g4
sS'fake_vc_call'
p71
NsS'jobs'
p72
I0
sS'linkflags'
p73
NsS'debug'
p74
I01
sS'xcode-build-order'
p75
g4
sS'gcc_rel_rtsm_args'
p76
S'-via:"c:\\Marmalade\\7.4\\examples\\GameTutorial\\CPP\\Stage1\\build_stage1_vc10x\\Stage1_vc10x_gcc_release.via" -qemu'
p77
sS'done_defaults'
p78
I1
sS'path'
p79
NsS's3e-data-dir'
p80
S'c:/Marmalade/7.4/examples/GameTutorial/CPP/Stage1\\data'
p81
sS'enable-exceptions'
p82
NsS'osx-dll'
p83
NsS'extension'
p84
g4
sS'no-vc6'
p85
NsS'non-interactive'
p86
NsS'win32-console'
p87
NsS'dist-format'
p88
g4
sS's3e-force-arch'
p89
NsS'dump_defines'
p90
NsS'use_prebuilt'
p91
NsS'gcc-version'
p92
g4
sS'x86_dbg_args'
p93
S'-via:"c:\\Marmalade\\7.4\\examples\\GameTutorial\\CPP\\Stage1\\build_stage1_vc10x\\Stage1_vc10x_debug.via"'
p94
sS'tizen_x86_dbg_args'
p95
g13
sS'arm-debugger'
p96
g4
sS'use_temp_extension'
p97
NsS'verbose'
p98
I0
sS'log'
p99
NsS'no-strip'
p100
NsS'rebuild'
p101
NsS'win32-simulator-dll'
p102
NsS'strict'
p103
I0
sS'mips_dbg_args'
p104
g13
sS'enable-global-path'
p105
NsS'cflags'
p106
NsS'dist-dir'
p107
g4
sS'xcode-arm-build-settings'
p108
g4
sS'jflags'
p109
NsS'csprojSDKRefs'
p110
g4
sS'tizen_x86_rel_exe'
p111
S'c:\\marmalade\\7.4\\s3e\\makefile_builder\\tool_launcher.exe'
p112
sS'test-assets'
p113
g4
sS'distcc'
p114
NsS'external-compiler'
p115
NsS'no-distcc'
p116
NsS'preinclude'
p117
NsS'using_sdk'
p118
I01
sS'nologo'
p119
NsS'warn-level'
p120
I2
sS'mips_dbg_exe'
p121
g112
sS'mkb_in'
p122
S'c:/Marmalade/7.4/examples/GameTutorial/CPP/Stage1/Stage1.mkb'
p123
sS'tizen_x86_dbg_exe'
p124
g112
sS'arm_dbg_exe'
p125
S'c:/marmalade/7.4/s3e\\bin\\armdebug.exe'
p126
sS'csprojDLLRef'
p127
NsS'tizen_x86_rel_args'
p128
g13
sS'android_x86_dbg_exe'
p129
g112
sS'test-config'
p130
g4
sS'list-targets'
p131
NsS'arm_rel_exe'
p132
g112
sS'arm_rel_args'
p133
g13
sS'makedeps'
p134
NsS'android_x86_rel_exe'
p135
g112
sS'default-buildenv'
p136
S'VC10X'
p137
sS'x86_rel_exe'
p138
g24
sS'preprocess-java'
p139
NsS'mips_rel_args'
p140
g13
sS'defines'
p141
NsS'lib'
p142
NsS'global_argv'
p143
(lp144
S'C:\\Marmalade\\7.4\\s3e\\makefile_builder\\mkb.py'
p145
aS'C:/Marmalade/7.4/examples\\GameTutorial\\CPP\\Stage1\\Stage1.mkb'
p146
aS'--buildenv=VC10X'
p147
aS'--debug'
p148
aS'--x86'
p149
aS'--no-ide'
p150
aS'--execute'
p151
asS'make'
p152
NsS'optimise-speed'
p153
NsS'internal'
p154
NsS'enable-stdinc'
p155
NsS'deploy-only'
p156
NsS'x86'
p157
I01
sS'deploy'
p158
g4
sS'x86_run_exe'
p159
S'c:/marmalade/7.4/s3e\\win32\\s3e_console.exe'
p160
sS'x86_rel_args'
p161
S'-via:"c:\\Marmalade\\7.4\\examples\\GameTutorial\\CPP\\Stage1\\build_stage1_vc10x\\Stage1_vc10x_release.via"'
p162
sS'gcc_rel_args'
p163
g13
sS'mips'
p164
NsS'xcode-build-settings'
p165
g4
sS'incredibuild'
p166
NsS'strict-compile'
p167
I0
sS'use-auto-subdirs'
p168
NsS'mips_rel_exe'
p169
g112
sS'android_x86_rel_args'
p170
g13
sS'app-icf'
p171
g4
sS'deployargs'
p172
NsS'iosnativedebug'
p173
NsS'mkf_in'
p174
(lp175
S'c:\\marmalade\\7.4\\s3e\\s3e-default.mkf'
p176
aS'c:\\marmalade\\7.4\\modules\\iw2d\\iw2d.mkf'
p177
aS'c:\\marmalade\\7.4\\modules\\iwgx\\iwgx.mkf'
p178
aS'c:\\marmalade\\7.4\\modules\\iwgl\\iwgl.mkf'
p179
aS'c:\\marmalade\\7.4\\modules\\iwutil\\iwutil.mkf'
p180
aS'c:\\marmalade\\7.4\\modules\\third_party\\libjpeg\\libjpeg.mkf'
p181
aS'c:\\marmalade\\7.4\\modules\\third_party\\libpng\\libpng.mkf'
p182
aS'c:\\marmalade\\7.4\\modules\\third_party\\zlib\\zlib.mkf'
p183
aS'c:\\marmalade\\7.4\\modules\\iwgeom\\iwgeom.mkf'
p184
aS'c:\\marmalade\\7.4\\modules\\iwresmanager\\iwresmanager.mkf'
p185
aS'c:\\marmalade\\7.4\\extensions\\pvrtextool\\pvrtextool.mkf'
p186
aS'c:\\marmalade\\7.4\\modules\\iwgxfont\\iwgxfont.mkf'
p187
aS'c:\\marmalade\\7.4\\modules\\third_party\\tiniconv\\tiniconv.mkf'
p188
aS'c:\\marmalade\\7.4\\examples\\marmaladeexampleresources\\marmaladeexampleresources.mkf'
p189
aS'c:\\marmalade\\7.4\\examples\\gametutorial\\cpp\\stage1\\libs\\cjson-for-marmalade\\cjson.mkf'
p190
asS'strict-mkb'
p191
I0
sS'executeargs'
p192
NsS'clean'
p193
NsS'no-asm'
p194
NsS'output-name'
p195
g4
sS'no-modules'
p196
NsS'find_define'
p197
g4
s(dp198
S'c:\\marmalade\\7.4\\s3e\\makefile_builder\\plugins\\Emitter.pyc'
p199
F1415334512.0
sS'c:\\marmalade\\7.4\\s3e\\makefile_builder\\templates\\ws8_ext_sln.pyc'
p200
F1415334512.0
sS'c:\\marmalade\\7.4\\s3e\\makefile_builder\\templates\\MainWindow.xib'
p201
F1415332874.0
sS'c:\\marmalade\\7.4\\s3e\\makefile_builder\\templates\\template.suo'
p202
F1415332874.0
sS'c:\\marmalade\\7.4\\s3e\\makefile_builder\\plugins\\xcode4_schememanagement.py'
p203
F1415332874.0
sS'c:\\marmalade\\7.4\\s3e\\makefile_builder\\templates\\ws81_sln.pyc'
p204
F1415334512.0
sS'c:\\marmalade\\7.4\\s3e\\makefile_builder\\templates\\win8_ext_csproj.pyc'
p205
F1415334512.0
sS'c:\\marmalade\\7.4\\s3e\\makefile_builder\\mkb_option.pyc'
p206
F1415334512.0
sS'c:\\marmalade\\7.4\\s3e\\makefile_builder\\plugins\\s3e_xcode.py'
p207
F1415332874.0
sS'c:\\marmalade\\7.4\\s3e\\makefile_builder\\plugins\\s3e_scons.pyc'
p208
F1415334512.0
sS'c:\\marmalade\\7.4\\s3e\\makefile_builder\\templates\\win8_vcxproj.pyc'
p209
F1415334512.0
sS'c:\\marmalade\\7.4\\s3e\\makefile_builder\\plugins\\null.pyc'
p210
F1415334512.0
sS'c:\\marmalade\\7.4\\s3e\\makefile_builder\\templates\\vc8_user.pyc'
p211
F1415334512.0
sS'c:\\marmalade\\7.4\\s3e\\makefile_builder\\templates\\wp81_ext_sln.pyc'
p212
F1415334512.0
sS'c:\\marmalade\\7.4\\s3e\\makefile_builder\\templates\\scons.pyc'
p213
F1415334512.0
sS'c:\\marmalade\\7.4\\s3e\\makefile_builder\\templates\\wp8_ext_csproj.pyc'
p214
F1415334512.0
sS'c:\\marmalade\\7.4\\s3e\\makefile_builder\\templates\\xcode_pbxuser.py'
p215
F1415332874.0
sS'c:\\marmalade\\7.4\\s3e\\makefile_builder\\plugins\\s3e_qmake.py'
p216
F1415332874.0
sS'c:\\marmalade\\7.4\\s3e\\makefile_builder\\plugins\\iphone.pyc'
p217
F1415334512.0
sS'c:\\marmalade\\7.4\\s3e\\makefile_builder\\templates\\ws81_ext_csproj.pyc'
p218
F1415334512.0
sS'c:\\marmalade\\7.4\\s3e\\makefile_builder\\templates\\vc6_opt.pyc'
p219
F1415334512.0
sS'c:\\marmalade\\7.4\\s3e\\makefile_builder\\plugins\\s3e_win8.pyc'
p220
F1415334512.0
sS'c:\\marmalade\\7.4\\s3e\\makefile_builder\\mkb_main.pyc'
p221
F1415334512.0
sS'c:\\marmalade\\7.4\\s3e\\makefile_builder\\templates\\wp8_csproj.pyc'
p222
F1415334512.0
sS'c:\\marmalade\\7.4\\s3e\\makefile_builder\\templates\\win32_vcproj.pyc'
p223
F1415334512.0
sS'c:\\marmalade\\7.4\\s3e\\makefile_builder\\templates\\win8_sln.pyc'
p224
F1415334512.0
sS'c:\\marmalade\\7.4\\s3e\\makefile_builder\\mkb_launcher.exe'
p225
F1415333332.0
sS'c:\\marmalade\\7.4\\s3e\\makefile_builder\\plugins\\osx_xcode.pyc'
p226
F1415334512.0
sS'c:\\marmalade\\7.4\\s3e\\makefile_builder\\plugins'
p227
F1417977635.699534
sS'c:\\marmalade\\7.4\\s3e\\makefile_builder\\templates\\wp8_csproj_user.pyc'
p228
F1415334512.0
sS'c:\\marmalade\\7.4\\s3e\\makefile_builder\\plugins\\win32_vc6.pyc'
p229
F1415334512.0
sS'c:\\marmalade\\7.4\\s3e\\makefile_builder\\plugins\\s3e_vc6.pyc'
p230
F1415334512.0
sS'c:\\marmalade\\7.4\\s3e\\makefile_builder\\templates\\vc10_user.pyc'
p231
F1415334512.0
sS'c:\\marmalade\\7.4\\s3e\\makefile_builder\\docs\\deprecated.defines.txt'
p232
F1415332874.0
sS'c:\\marmalade\\7.4\\s3e\\makefile_builder\\templates\\wp81_csproj_user.pyc'
p233
F1415334512.0
sS'c:\\marmalade\\7.4\\s3e\\makefile_builder\\templates\\ws81_ext_sln.pyc'
p234
F1415334512.0
sS'c:\\marmalade\\7.4\\s3e\\makefile_builder\\templates\\make.py'
p235
F1415332874.0
sS'c:\\marmalade\\7.4\\s3e\\makefile_builder\\plugins\\wp81_wp81.pyc'
p236
F1415334512.0
sS'c:\\marmalade\\7.4\\s3e\\makefile_builder\\plugins\\s3e_qmake.pyc'
p237
F1417977635.507523
sS'c:\\marmalade\\7.4\\s3e\\makefile_builder\\templates\\mips_linker_script'
p238
F1415332874.0
sS'c:\\marmalade\\7.4\\s3e\\makefile_builder\\plugins\\deploy.pyc'
p239
F1415334512.0
sS'c:\\marmalade\\7.4\\s3e\\makefile_builder\\plugins\\ws81_ws81.pyc'
p240
F1415334512.0
sS'c:\\marmalade\\7.4\\s3e\\makefile_builder\\mkb.py'
p241
F1415332874.0
sS'c:\\marmalade\\7.4\\s3e\\makefile_builder\\docs\\options.txt'
p242
F1415332874.0
sS'c:\\marmalade\\7.4\\s3e\\makefile_builder\\mkb_parser.pyc'
p243
F1415334512.0
sS'c:\\marmalade\\7.4\\s3e\\makefile_builder\\templates\\qmake_user.py'
p244
F1415332874.0
sS'c:\\marmalade\\7.4\\s3e\\makefile_builder\\docs\\mkb.defines.txt'
p245
F1415332874.0
sS'c:\\marmalade\\7.4\\s3e\\makefile_builder\\deployment.pyc'
p246
F1415334512.0
sS'c:\\marmalade\\7.4\\s3e\\makefile_builder\\plugins\\wp8_wp8.pyc'
p247
F1415334512.0
sS'c:\\marmalade\\7.4\\s3e\\makefile_builder\\plugins\\linux_scons.pyc'
p248
F1415334512.0
sS'c:\\marmalade\\7.4\\s3e\\makefile_builder\\plugins\\s3e_web.pyc'
p249
F1415334512.0
sS'c:\\marmalade\\7.4\\s3e\\makefile_builder\\plugins\\S3EEmitter.pyc'
p250
F1415334512.0
sS'c:\\marmalade\\7.4\\s3e\\makefile_builder\\plugins\\Win8Emitter.pyc'
p251
F1415334512.0
sS'c:\\marmalade\\7.4\\s3e\\makefile_builder\\templates\\xcode4_arm.xcscheme'
p252
F1415332874.0
sS'c:\\marmalade\\7.4\\s3e\\makefile_builder\\plugins\\vc6_utils.pyc'
p253
F1415334512.0
sS'c:\\marmalade\\7.4\\s3e\\makefile_builder\\templates\\wp8_vcxproj.pyc'
p254
F1415334512.0
sS'c:\\marmalade\\7.4\\s3e\\makefile_builder\\templates\\xcode4.xcscheme'
p255
F1415332874.0
sS'c:\\marmalade\\7.4\\s3e\\makefile_builder\\plugins\\MakeEmitter.pyc'
p256
F1415334512.0
sS'c:\\marmalade\\7.4\\s3e\\makefile_builder\\plugins\\java.pyc'
p257
F1415334512.0
sS'c:\\marmalade\\7.4\\s3e\\makefile_builder\\plugins\\XcodeEmitter.pyc'
p258
F1417977635.1775043
sS'c:\\marmalade\\7.4\\s3e\\makefile_builder\\plugins\\XcodeEmitter.py'
p259
F1415332874.0
sS'c:\\marmalade\\7.4\\s3e\\makefile_builder\\mkb_globals.pyc'
p260
F1415334512.0
sS'c:\\marmalade\\7.4\\s3e\\makefile_builder\\tool_launcher.exe'
p261
F1415333332.0
sS'c:\\marmalade\\7.4\\s3e\\makefile_builder\\mkb_util.pyc'
p262
F1415334512.0
sS'c:\\marmalade\\7.4\\s3e\\makefile_builder\\plugins\\xcode4_schememanagement.pyc'
p263
F1417977635.1995053
sS'c:\\marmalade\\7.4\\s3e\\makefile_builder\\templates\\ws8_sln.pyc'
p264
F1415334512.0
sS'c:\\marmalade\\7.4\\s3e\\makefile_builder\\templates\\win32_sln.pyc'
p265
F1415334512.0
sS'c:\\marmalade\\7.4\\s3e\\makefile_builder\\templates\\wp81_ext_csproj.pyc'
p266
F1415334512.0
sS'c:\\marmalade\\7.4\\s3e\\makefile_builder\\plugins\\s3e_wp81.pyc'
p267
F1415334512.0
sS'c:\\marmalade\\7.4\\s3e\\makefile_builder\\plugins\\s3e_wp8.pyc'
p268
F1415334512.0
sS'c:\\marmalade\\7.4\\s3e\\makefile_builder\\templates\\qmake.py'
p269
F1415332874.0
sS'c:\\marmalade\\7.4\\s3e\\makefile_builder\\templates\\gdb_start.txt'
p270
F1415332874.0
sS'c:\\marmalade\\7.4\\s3e\\makefile_builder\\templates'
p271
F1417975929.5919504
sS'c:\\marmalade\\7.4\\s3e\\makefile_builder\\templates\\ws8_ext_csproj.pyc'
p272
F1415334512.0
sS'c:\\marmalade\\7.4\\s3e\\makefile_builder\\templates\\win8_csproj_user.pyc'
p273
F1415334512.0
sS'c:\\marmalade\\7.4\\s3e\\makefile_builder\\templates\\vc7_suo.pyc'
p274
F1415334512.0
sS'c:\\marmalade\\7.4\\s3e\\makefile_builder\\plugins\\VisualStudioEmitter.pyc'
p275
F1415334512.0
sS'c:\\marmalade\\7.4\\s3e\\makefile_builder\\templates\\linker_script'
p276
F1415332874.0
sS'c:\\marmalade\\7.4\\s3e\\makefile_builder\\docs\\deprecated.options.txt'
p277
F1415332874.0
sS'c:\\marmalade\\7.4\\s3e\\makefile_builder\\plugins\\s3e_xcode.pyc'
p278
F1417977635.699534
sS'c:\\marmalade\\7.4\\s3e\\makefile_builder\\plugins\\s3e_ws8.pyc'
p279
F1415334512.0
sS'c:\\marmalade\\7.4\\s3e\\makefile_builder\\templates\\xcode4_DeployTool.xcscheme'
p280
F1415332874.0
sS'c:\\marmalade\\7.4\\s3e\\makefile_builder\\templates\\ws8_csproj_user.pyc'
p281
F1415334512.0
sS'c:\\marmalade\\7.4\\s3e\\makefile_builder\\plugins\\osx_scons.pyc'
p282
F1415334512.0
sS'c:\\marmalade\\7.4\\s3e\\makefile_builder\\templates\\ws81_csproj.pyc'
p283
F1415334512.0
sS'c:\\marmalade\\7.4\\s3e\\makefile_builder\\templates\\wp8_sln.pyc'
p284
F1415334512.0
sS'c:\\marmalade\\7.4\\s3e\\makefile_builder\\docs'
p285
F1417975929.6099513
sS'c:\\marmalade\\7.4\\s3e\\makefile_builder\\plugins\\ws8_ws8.pyc'
p286
F1415334512.0
sS'c:\\marmalade\\7.4\\s3e\\makefile_builder\\docs\\deployment_options.txt'
p287
F1415332874.0
sS'c:\\marmalade\\7.4\\s3e\\makefile_builder\\templates\\win32_vcxproj_filters.pyc'
p288
F1415334512.0
sS'c:\\marmalade\\7.4\\s3e\\makefile_builder\\templates\\win32_dsw.pyc'
p289
F1415334512.0
sS'c:\\marmalade\\7.4\\s3e\\makefile_builder\\plugins\\s3e_ws81.pyc'
p290
F1415334512.0
sS'c:\\marmalade\\7.4\\s3e\\makefile_builder\\plugins\\SConsEmitter.pyc'
p291
F1415334512.0
sS'c:\\marmalade\\7.4\\s3e\\makefile_builder\\templates\\wp81_vcxproj.pyc'
p292
F1415334512.0
sS'c:\\marmalade\\7.4\\s3e\\makefile_builder\\plugins\\win8_utils.pyc'
p293
F1415334512.0
sS'c:\\marmalade\\7.4\\s3e\\makefile_builder\\templates\\template.opt'
p294
F1415332874.0
sS'c:\\marmalade\\7.4\\s3e\\makefile_builder\\plugins\\vc7_utils.pyc'
p295
F1415334512.0
sS'c:\\marmalade\\7.4\\s3e\\makefile_builder\\templates\\win32_dsp.pyc'
p296
F1415334512.0
sS'c:\\marmalade\\7.4\\s3e\\makefile_builder\\plugins\\s3e_make.pyc'
p297
F1415334512.0
sS'c:\\marmalade\\7.4\\s3e\\makefile_builder\\templates\\rvct_linker_script'
p298
F1415332874.0
sS'c:\\marmalade\\7.4\\s3e\\makefile_builder\\templates\\win8_csproj.pyc'
p299
F1415334512.0
sS'c:\\marmalade\\7.4\\s3e\\makefile_builder\\templates\\xcode.py'
p300
F1415332874.0
sS'c:\\marmalade\\7.4\\s3e\\makefile_builder\\templates\\ws8_vcxproj.pyc'
p301
F1415334512.0
sS'c:\\marmalade\\7.4\\s3e\\makefile_builder\\templates\\wp81_csproj.pyc'
p302
F1415334512.0
sS'c:\\marmalade\\7.4\\s3e\\makefile_builder\\mkb_upstream.pyc'
p303
F1415334512.0
sS'c:\\marmalade\\7.4\\s3e\\makefile_builder\\templates\\win32_vcxproj.pyc'
p304
F1415334512.0
sS'c:\\marmalade\\7.4\\s3e\\makefile_builder\\templates\\ws8_csproj.pyc'
p305
F1415334512.0
sS'c:\\marmalade\\7.4\\s3e\\makefile_builder\\docs\\parse_options.pyc'
p306
F1415334514.0
sS'c:\\marmalade\\7.4\\s3e\\makefile_builder\\templates\\Info.plist'
p307
F1415332874.0
sS'c:\\marmalade\\7.4\\s3e\\makefile_builder\\templates\\wp81_sln.pyc'
p308
F1415334512.0
sS'c:\\marmalade\\7.4\\s3e\\makefile_builder\\templates\\ws81_csproj_user.pyc'
p309
F1415334512.0
sS'c:\\marmalade\\7.4\\s3e\\makefile_builder\\templates\\ws81_vcxproj.pyc'
p310
F1415334512.0
sccopy_reg
_reconstructor
p311
(cmkb_main
MkbFile
p312
c__builtin__
object
p313
Ntp314
Rp315
(dp316
g5
(lp317
sS'target_name'
p318
S'Stage1'
p319
sS'current_file'
p320
g123
sS'package_path'
p321
(lp322
sS'post_build'
p323
(lp324
(lp325
S'c:/marmalade/7.4/s3e/tools'
p326
aS'C:\\Marmalade\\7.4\\s3e\\python\\python.exe .\\process_map.py "$(TargetPath)"'
p327
aa(S'c:\\marmalade\\7.4\\s3e\\bin'
p328
S'"s3e_plink" -l "$(TargetPath)" '
p329
g157
tp330
asS'librarys'
p331
(lp332
g311
(cmkb_main
Library
p333
g313
Ntp334
Rp335
(dp336
S'name'
p337
S'vc6_compat.lib'
p338
sS'expand_name'
p339
I00
sS'include_spec_rvct_objs'
p340
(lp341
sS'include_all_objs'
p342
I00
sS'share_arm'
p343
I00
sS'arch'
p344
S'x86'
p345
sS'nodebug'
p346
I00
sg36
Nsbag311
(g333
g313
Ntp347
Rp348
(dp349
g337
S'iw2d'
p350
sg339
I01
sg340
(lp351
sg342
Nsg343
Nsg344
Nsg346
I00
sg36
Nsbag311
(g333
g313
Ntp352
Rp353
(dp354
g337
S'ATI_Compress_MT_VC7.lib'
p355
sg339
I00
sg340
g351
sg342
Nsg343
Nsg344
S'x86'
p356
sg346
I00
sg36
Nsbag311
(g333
g313
Ntp357
Rp358
(dp359
g337
S'iwgx'
p360
sg339
I01
sg340
g351
sg342
Nsg343
Nsg344
Nsg346
I00
sg36
Nsbag311
(g333
g313
Ntp361
Rp362
(dp363
g337
S'iwgl'
p364
sg339
I01
sg340
g351
sg342
Nsg343
Nsg344
Nsg346
I00
sg36
Nsbag311
(g333
g313
Ntp365
Rp366
(dp367
g337
S'iwutil'
p368
sg339
I01
sg340
g351
sg342
Nsg343
Nsg344
Nsg346
I00
sg36
Nsbag311
(g333
g313
Ntp369
Rp370
(dp371
g337
S'jpeg'
p372
sg339
I01
sg340
g351
sg342
Nsg343
Nsg344
Nsg346
I00
sg36
Nsbag311
(g333
g313
Ntp373
Rp374
(dp375
g337
S'z'
p376
sg339
I01
sg340
g351
sg342
Nsg343
Nsg344
Nsg346
I00
sg36
Nsbag311
(g333
g313
Ntp377
Rp378
(dp379
g337
S'png'
p380
sg339
I01
sg340
g351
sg342
Nsg343
Nsg344
Nsg346
I00
sg36
Nsbag311
(g333
g313
Ntp381
Rp382
(dp383
g337
S'iwgeom'
p384
sg339
I01
sg340
g351
sg342
Nsg343
Nsg344
Nsg346
I00
sg36
Nsbag311
(g333
g313
Ntp385
Rp386
(dp387
g337
S'iwresmanager'
p388
sg339
I01
sg340
g351
sg342
Nsg343
Nsg344
Nsg346
I00
sg36
Nsbag311
(g333
g313
Ntp389
Rp390
(dp391
g337
S'iwgxfont'
p392
sg339
I01
sg340
g351
sg342
Nsg343
Nsg344
Nsg346
I00
sg36
Nsbag311
(g333
g313
Ntp393
Rp394
(dp395
g337
S'tiniconv'
p396
sg339
I01
sg340
g351
sg342
Nsg343
Nsg344
Nsg346
I00
sg36
Nsbag311
(g333
g313
Ntp397
Rp398
(dp399
g337
S's3e_cpp'
p400
sg339
I01
sg340
g341
sg342
I00
sg343
I00
sg344
Nsg346
I00
sg36
Nsbag311
(g333
g313
Ntp401
Rp402
(dp403
g337
S's3e'
p404
sg339
I01
sg340
(lp405
S'iwcrt.o'
p406
asg342
I00
sg343
I00
sg344
Nsg346
I00
sg36
Nsbag311
(g333
g313
Ntp407
Rp408
(dp409
g337
g51
sg339
I01
sg340
g341
sg342
I00
sg343
I00
sg344
S'x86'
p410
sg346
I01
sg36
Nsbag311
(g333
g313
Ntp411
Rp412
(dp413
g337
g51
sg339
I01
sg340
g341
sg342
I00
sg343
I00
sg344
S'!x86'
p414
sg346
I01
sg36
Nsbag311
(g333
g313
Ntp415
Rp416
(dp417
g337
S'stdc++'
p418
sg339
I00
sg340
g341
sg342
I00
sg343
I00
sg344
S'mips'
p419
sg346
I00
sg36
Nsbag311
(g333
g313
Ntp420
Rp421
(dp422
g337
S'c'
p423
sg339
I00
sg340
g341
sg342
I00
sg343
I00
sg344
S'mips'
p424
sg346
I00
sg36
Nsbag311
(g333
g313
Ntp425
Rp426
(dp427
g337
S'm'
p428
sg339
I00
sg340
g341
sg342
I00
sg343
I00
sg344
S'mips'
p429
sg346
I00
sg36
Nsbag311
(g333
g313
Ntp430
Rp431
(dp432
g337
S'gcc'
p433
sg339
I00
sg340
g341
sg342
I00
sg343
I00
sg344
S'mips'
p434
sg346
I00
sg36
Nsbag311
(g333
g313
Ntp435
Rp436
(dp437
g337
S'stdc++'
p438
sg339
I00
sg340
g341
sg342
I00
sg343
I00
sg344
S'gcc_x86_android'
p439
sg346
I00
sg36
Nsbag311
(g333
g313
Ntp440
Rp441
(dp442
g337
g423
sg339
I00
sg340
g341
sg342
I00
sg343
I00
sg344
S'gcc_x86_android'
p443
sg346
I00
sg36
Nsbag311
(g333
g313
Ntp444
Rp445
(dp446
g337
g428
sg339
I00
sg340
g341
sg342
I00
sg343
I00
sg344
S'gcc_x86_android'
p447
sg346
I00
sg36
Nsbag311
(g333
g313
Ntp448
Rp449
(dp450
g337
g433
sg339
I00
sg340
g341
sg342
I00
sg343
I00
sg344
S'gcc_x86_android'
p451
sg346
I00
sg36
NsbasS'library_paths'
p452
(lp453
g311
(cmkb_main
LibraryPath
p454
g313
Ntp455
Rp456
(dp457
S'expand_path'
p458
I01
sg337
S'c:/marmalade/7.4/modules/iw2d'
p459
sbag311
(g454
g313
Ntp460
Rp461
(dp462
g458
I00
sg337
S'c:/marmalade/7.4/modules/iwgx/atitools'
p463
sbag311
(g454
g313
Ntp464
Rp465
(dp466
g458
I01
sg337
S'c:/marmalade/7.4/modules/iwgx'
p467
sbag311
(g454
g313
Ntp468
Rp469
(dp470
g458
I01
sg337
S'c:/marmalade/7.4/modules/iwgl'
p471
sbag311
(g454
g313
Ntp472
Rp473
(dp474
g458
I01
sg337
S'c:/marmalade/7.4/modules/iwutil'
p475
sbag311
(g454
g313
Ntp476
Rp477
(dp478
g458
I01
sg337
S'c:/marmalade/7.4/modules/third_party/libjpeg'
p479
sbag311
(g454
g313
Ntp480
Rp481
(dp482
g458
I01
sg337
S'c:/marmalade/7.4/modules/third_party/zlib'
p483
sbag311
(g454
g313
Ntp484
Rp485
(dp486
g458
I01
sg337
S'c:/marmalade/7.4/modules/third_party/libpng'
p487
sbag311
(g454
g313
Ntp488
Rp489
(dp490
g458
I01
sg337
S'c:/marmalade/7.4/modules/iwgeom'
p491
sbag311
(g454
g313
Ntp492
Rp493
(dp494
g458
I01
sg337
S'c:/marmalade/7.4/modules/iwresmanager'
p495
sbag311
(g454
g313
Ntp496
Rp497
(dp498
g458
I01
sg337
S'c:/marmalade/7.4/modules/iwgxfont'
p499
sbag311
(g454
g313
Ntp500
Rp501
(dp502
g458
I01
sg337
S'c:/marmalade/7.4/modules/third_party/tiniconv'
p503
sbag311
(g454
g313
Ntp504
Rp505
(dp506
g458
I01
sg337
S'c:/marmalade/7.4/s3e'
p507
sbasS'macros'
p508
(dp509
S'IW_USE_CALLSTACK'
p510
NsS'IW_MKF_IWGEOM'
p511
NsS'I3D_PLATFORM_S3E'
p512
NsS'__S3E__'
p513
NsS'IW_MKF_CJSON'
p514
NsS'IW_MKF_LIBJPEG'
p515
NsS'I3D_OS_S3E'
p516
NsS'IW_MKF_PVRTEXTOOL'
p517
NsS'IW_MKF_TINICONV'
p518
NsS'IW_APP_VERSION'
p519
S'"1.0"'
p520
sS'IW_MKF_IWRESMANAGER'
p521
NsS'IW_MKF_IWUTIL'
p522
NsS'IW_PLATFORM_S3E'
p523
NsS'IW_ASSERTION_CHANNEL_2D'
p524
S'1'
p525
sS'IW_APP_NAME'
p526
S'"Stage1"'
p527
sS'IW_MKF_S3E_DEFAULT'
p528
NsS'IW_MKF_IWGXFONT'
p529
NsS'IW_MKF_ZLIB'
p530
NsS'IW_MKF_MARMALADEEXAMPLERESOURCES'
p531
NsS'IW_MKF_IWGX'
p532
NsS'IW_USE_ASSERTIONS'
p533
NsS'_CRT_SECURE_NO_DEPRECATE'
p534
NsS'IW_MKF_IWGL'
p535
NsS'IW_MKF_LIBPNG'
p536
NsS'IW_DEBUG'
p537
NsS'IW_USE_TRACING'
p538
NsS'IW_TRACE_CHANNEL_PVRTEXTOOL'
p539
g525
sS'IW_SDK'
p540
NsS'S3E_INCLUDE_LEGACY'
p541
NsS'IW_TRACE_CHANNEL_PVRTEXTOOL_VERBOSE'
p542
S'2'
p543
sS'IW_MKF_IW2D'
p544
NsS'IW_ASSERTION_CHANNEL_PVRTEXTOOL'
p545
g525
ssS'done_warnings'
p546
(dp547
sS'subprojects'
p548
(dp549
g189
S'../../../MarmaladeExampleResources'
p550
sg183
S'zlib'
p551
sg176
S's3e-default.mkf'
p552
sg181
S'libjpeg'
p553
sg188
S'tiniconv'
p554
sg178
S'iwgx'
p555
sg184
S'iwgeom'
p556
sg180
S'iwutil'
p557
sg179
S'iwgl'
p558
sg177
S'iw2d'
p559
sg187
S'iwgxfont'
p560
sg185
S'iwresmanager'
p561
sg182
S'libpng'
p562
sg190
S'c:/Marmalade/7.4/examples/GameTutorial/CPP/Stage1/libs/cJSON-for-marmalade/cjson'
p563
sg186
S'PVRTexTool'
p564
ssS'deployments'
p565
(dp566
S'Default'
p567
g311
(cdeployment
Deployment
p568
g313
Ntp569
Rp570
(dp571
S'got_version'
p572
I0
sS'assets'
p573
g567
sS'mkb'
p574
g315
sS'target'
p575
Nsg344
(lp576
sS'options'
p577
(dp578
S'iphone-link-lib'
p579
(lp580
sS'game-icf'
p581
NsS'android-tm'
p582
NsS'winmobile-icon32'
p583
NsS'ws8-logo-image150x150'
p584
NsS'wp81-logo-image150x150'
p585
NsS'ws81-product-version'
p586
NsS'osx-ext-dll'
p587
(lp588
S'c:/marmalade/7.4/extensions/pvrtextool/lib/osx/libPVRTexTool.dylib'
p589
asS'iphone-provisioning-profile'
p590
NsS'win32-icon'
p591
NsS'ws8-splash-screen-image620x300'
p592
NsS'wp81-extra-pri'
p593
(lp594
sS'ws8-ext-capabilities'
p595
(lp596
sS'android-icon-hdpi'
p597
NsS'iphone-ipad-only'
p598
NsS'iphone-splash-full-orient'
p599
NsS'wp8-tile-fliptemplate-supports-large'
p600
NsS'iphone-show-status-bar'
p601
NsS'roku-requires-mkv'
p602
NsS'long-caption'
p603
NsS'android-pkgname'
p604
NsS'wp81-publisher-display-name'
p605
NsS'blackberry-permissions-read-device-identifying-information'
p606
NsS'ws81-certificate-end-date'
p607
NsS'psp-dlgcontentid'
p608
NsS'iphone-minimum-ios-version'
p609
NsS'target-folder'
p610
NsS'tizen-dist1-CA-path'
p611
NsS'symbian-icon2-format'
p612
NsS'tizen-author-key'
p613
NsS'firefoxos-icon-128X128'
p614
NsS'iphone-region'
p615
NsS'uiq3-icon3-mask'
p616
NsS'brew-encoding'
p617
NsS'android-x86'
p618
NsS'nds-initialcode'
p619
NsS'iphone-persistent-wifi'
p620
NsS'psp-snd0'
p621
NsS'roku-icon-focus-hd'
p622
NsS'osx-appid'
p623
NsS'winmobile-install-folder'
p624
NsS'android-external-res'
p625
(lp626
sS'ws8-product-version'
p627
NsS'brew-priviledges'
p628
NsS'iphone-icon-ipad-search'
p629
NsS'iphone-icon-ipad'
p630
NsS'iphone-skip-icon-generation'
p631
NsS'roku-hidden'
p632
NsS'psp-titlename'
p633
NsS'wp81-product-version'
p634
NsS'symbian-icon1-mask'
p635
NsS'psp-parentallevel'
p636
NsS'iphone-launch-storyboard'
p637
NsS'splashscreen-use-all'
p638
NsS'wp8-author'
p639
NsS'symbian-disable-ecompxl'
p640
NsS'splashscreen-auto-onblack'
p641
NsS'iphone-icon-dir'
p642
NsS'iphone-icon-extra'
p643
NsS'win32-ext-dll'
p644
(lp645
S'c:/marmalade/7.4/extensions/pvrtextool/lib/win32/PVRTexTool.dll'
p646
asS'iphone-development-key'
p647
NsS'winmobile-icon48'
p648
NsS'android-unsigned'
p649
NsS'osx-appstore-category'
p650
NsS'version-revision'
p651
NsS'roku-icon-focus-sd'
p652
NsS'android-keystore'
p653
NsS'winmobile-png90'
p654
NsS'iphone-icon-ipad-high-res'
p655
NsS'iphone-disable-ipad'
p656
NsS'ws81-splash-screen-background'
p657
NsS'wp8-ext-capabilities'
p658
(lp659
sS'brew-icon-large'
p660
NsS'symbian-icon1-mask-black'
p661
NsS'iphone-nosign'
p662
NsS'iphone-bundle-localisations'
p663
NsS'winmobile-png60'
p664
NsS'blackberry-permissions-access-shared'
p665
NsS'blackberry-author'
p666
NsS'android-icon-xxxhdpi'
p667
NsS'olddeploytoolstyle'
p668
NsS'android_icon_gallery'
p669
NsS'wp81-splash-screen-background'
p670
NsS'winmobile-cab-compress'
p671
NsS'iphone-info-plist'
p672
NsS'ws81-ext-managed-dll'
p673
(lp674
sS'ws8-distribution-pfx-password'
p675
NsS'symbian-key'
p676
NsS'app-icf'
p677
NsS'blackberry-storepass'
p678
NsS'wp8-tile-fliptemplate-back-title'
p679
NsS'brew-compress-loader'
p680
NsS'win32-pref-windowposy'
p681
NsS'win32-pref-windowposx'
p682
NsS'roku-requires-audiometadata'
p683
NsS'wp8-exclude-low-mem'
p684
NsS'wp8-tile-fliptemplate-title'
p685
NsS'iphone-icon-ipad-search-high-res'
p686
NsS'iphone-link-libdir'
p687
(lp688
sS'wp81-ext-capabilities'
p689
(lp690
sS'blackberry-permissions-read-geolocation'
p691
NsS'ws81-ext-device-capabilities'
p692
(lp693
sS'tizen-signed'
p694
NsS'android-extra-application-manifest'
p695
(lp696
sS'ws8-ext-native-dll'
p697
(lp698
sS'symbian-icon2-mask'
p699
NsS'iphone-launch-extra'
p700
NsS'webos-memory'
p701
NsS'android-keypass'
p702
NsS'name'
p703
NsS'uiq3-icon2-format'
p704
NsS'roku-splash-screen-sd'
p705
NsS'auto-derbh'
p706
NsS'roku-icon-side-sd'
p707
NsS'android-external-assets'
p708
(lp709
sS'nds-publicsavedatasize'
p710
NsS'splashscreen'
p711
S'c:/marmalade/7.4/examples/marmaladeexampleresources/resources/splashscreens'
p712
sS'brew-mif'
p713
NsS'iphone-icon-settings-high-res'
p714
NsS'android-manifest'
p715
NsS'ws81-splash-screen-image620x300'
p716
NsS'wp81-product-name'
p717
NsS's3e-compression'
p718
NsS'tizen-author-password'
p719
NsS'wp8-tile-fliptemplate-back-content'
p720
NsS'blackberry-extra-descriptor'
p721
(lp722
sS'symbian-icon1'
p723
NsS'symbian-icon2'
p724
NsS'android-extra-styles-file'
p725
NsS'wp81-publisher-id'
p726
NsS'nds-bannertitle-jp'
p727
NsS'wp81-logo-image44x44'
p728
NsS'osx-sign-for-store'
p729
NsS'symbian7-uid'
p730
NsS'wp8-tile-fliptemplate-large-back-content'
p731
NsS'wp81-phone-publisher-id'
p732
NsS'nds-bannertitle-cn'
p733
NsS'iphone-distribution-key'
p734
NsS'android-icon-gallery'
p735
NsS'blackberry-keystore'
p736
NsS'ws8-extra-res'
p737
(lp738
sS'caption'
p739
NsS'android-extra-manifest'
p740
(lp741
sS'wp81-ext-sdk-ref'
p742
(lp743
sS'android-icon-xxhdpi'
p744
NsS'version-minor'
p745
NsS'iphone-skip-launch-generation'
p746
NsS'iphone-link-libdirs'
p747
(lp748
sS'iphone-icon-large'
p749
NsS'symbian-keypwd'
p750
NsS'symbian8-uid'
p751
NsS'symbian-cert-key'
p752
NsS'winmobile-ampd-part-number'
p753
NsS'arch'
p754
NsS'nds-romheadertemplate'
p755
NsS'webos-icon'
p756
NsS'wp81-ext-device-capabilities'
p757
(lp758
sS'psp-dlgprotectdocument'
p759
NsS'ws8-splash-screen-background'
p760
NsS'android-icon-mdpi'
p761
NsS'nds-icon'
p762
NsS'ws8-custom-manifest-fill'
p763
NsS'iphone-development-cert'
p764
NsS'blackberry-phone-icon'
p765
NsS'iphone-enable-4inch-retina'
p766
NsS'ws8-custom-manifest'
p767
NsS'version-major'
p768
NsS'wp8-genre-isgame'
p769
NsS'uiq3-uid'
p770
NsS'iphone-splash-retina-generate'
p771
NsS'tizen-hw-acceleration'
p772
NsS'iphone_bundle_localisations'
p773
NsS'tizen-dist1-key'
p774
NsS'wp81-custom-manifest-fill'
p775
NsS'wp8-custom-manifest'
p776
NsS'nds-bannertitle-ge'
p777
NsS'iphone-sign-for-distribution'
p778
NsS'wp8-tile-fliptemplate-medium-back-image'
p779
NsS'wp8-publisher-id'
p780
NsS'icon'
p781
S'c:/marmalade/7.4/examples/marmaladeexampleresources/resources/icons'
p782
sS'wp8-exclude-wxga'
p783
NsS'wp81-identity-name'
p784
NsS'uiq3-icon2-mask'
p785
NsS'iphone-splashscreen-portrait'
p786
NsS'iphone-icon-high-res'
p787
NsS'ws81-distribution-pfx-password'
p788
NsS'playbook-author'
p789
NsS'android-icon-xhdpi'
p790
NsS'linux-ext-lib'
p791
(lp792
sS'blackberry-permissions-access-internet'
p793
NsS'wp8-exclude-720p'
p794
NsS'lgtv-use-drm'
p795
NsS'symbian-platsecflags'
p796
NsS'ws8-description'
p797
NsS'blackberry-playbook-icon'
p798
NsS'copyright'
p799
NsS'win32-gles-directory'
p800
NsS'version'
p801
NsS'iphone-uiviewcontroller-based-status-bar'
p802
NsS'ws81-logo-image150x150'
p803
NsS'osx-signing-identity-app'
p804
NsS'tizen-project-url'
p805
NsS'symbian-icon-svg'
p806
NsS'android-aliasname'
p807
NsS'psp-dlgmanual'
p808
NsS'brew-uid'
p809
NsS'symbian-locationsupport'
p810
NsS'wp81-logo-image50x50'
p811
NsS'ws8-ext-managed-dll'
p812
(lp813
sS'nds-bannertitle-it'
p814
NsS'ws81-custom-manifest-fill'
p815
NsS'ws8-ext-sdk-manifest-part'
p816
(lp817
sS'uiq3-icon1-mask'
p818
NsS'winmobile-icon16'
p819
NsS'ws8-product-name'
p820
NsS'blackberry-cskpass'
p821
NsS'winmobile-start-menu-folder'
p822
NsS'brew-clsid'
p823
NsS'roku-requires-bluetooth'
p824
NsS'ws8-ext-device-capabilities'
p825
(lp826
sS'blackberry-permissions-use-camera'
p827
NsS'ws81-extra-pri'
p828
(lp829
sS'iphone-prerendered-icon'
p830
NsS'iphone-appid'
p831
NsS'ws8-identity-name'
p832
NsS'tizen-dist2-CA-path'
p833
NsS'android-external-jars'
p834
(lp835
sS'winmobile-icon64'
p836
NsS'blackberry-permissions-post-notification'
p837
NsS'winmobile-setup-dll'
p838
NsS'firefoxos-manifest'
p839
NsS'win8-winrt-extra-res'
p840
(lp841
sS'wp81-ext-sdk-manifest-part'
p842
(lp843
sS'symbian9-uid'
p844
NsS'iphone-icon-ipad-ios7'
p845
NsS'winmobile-trace-file'
p846
NsS'roku-splash-color'
p847
NsS'psp-appversion'
p848
NsS'ws8-publisher-id'
p849
NsS'android-supports-gl-texture'
p850
(lp851
sS'winmobile-png45'
p852
NsS'wp81-extra-res'
p853
(lp854
sS'android-storepass'
p855
NsS'osx-signing-identity-inst'
p856
NsS'android-custom-activity'
p857
NsS'psp-discversion'
p858
NsS'wp81-ext-managed-dll'
p859
(lp860
sS'psp-copyright'
p861
NsS'embed-icf'
p862
NsS'tizen-manifest'
p863
NsS'osx-icon'
p864
NsS'webos-appinfo'
p865
NsS'psp-dlghealthwarning'
p866
NsS'webos-appid'
p867
NsS'roku-icon-side-hd'
p868
NsS'iphone-icon-ipad-search-high-res-ios7'
p869
NsS'ws81-ext-sdk-manifest-part'
p870
(lp871
sS'loader_name_prefix'
p872
NsS'iphone-launch-dir'
p873
NsS'nds-titlename'
p874
NsS'ws81-logo-image50x50'
p875
NsS'wp81-custom-manifest'
p876
NsS'osx-entitlements-plist'
p877
NsS'psp-dlgicon0'
p878
NsS'winmobile-nouninstall'
p879
NsS'psp-discid'
p880
NsS'tizen-dist2-password'
p881
NsS'ws8-ext-sdk-ref'
p882
(lp883
sS'iphone-extra-string'
p884
(lp885
sS'version-string'
p886
NsS'iphone-icon-high-res-ios7'
p887
NsS'blackberry-permissions-record-audio'
p888
NsS'ws8-certificate-end-date'
p889
NsS'tizen-so'
p890
(lp891
sS'wp8-tile-fliptemplate-small-image'
p892
NsS'playbook-authorid'
p893
NsS'iphone-signing-identity'
p894
NsS'roku-persist-quota'
p895
NsS'nds-bannertitle-fr'
p896
NsS'ws8-distribution-pfx'
p897
NsS'ws8-publisher-display-name'
p898
NsS'brew-icon-small'
p899
NsS'psp-dlgpic2'
p900
NsS'psp-dlgpic0'
p901
NsS'psp-pic0'
p902
NsS'psp-pic1'
p903
NsS'win32-pref-windowtitle'
p904
NsS'psp-icon0'
p905
NsS'psp-icon1'
p906
NsS'ws81-identity-name'
p907
NsS'winmobile-icon'
p908
NsS'iphone-no-splash'
p909
NsS'iphone-splash'
p910
NsS'iphone-app-fonts'
p911
NsS'wp8-ext-native-dll'
p912
(lp913
sS'wp81-splash-screen-image480x800'
p914
NsS'ws81-distribution-cer'
p915
NsS'iphone-backgroundmode-audio'
p916
NsS'uiq3-icon2'
p917
NsS'uiq3-icon3'
p918
NsS'uiq3-icon1'
p919
NsS'uiq3-icon1-format'
p920
NsS'ws8-logo-image50x50'
p921
NsS'symbian-icon2-mask-black'
p922
NsS'symbian-run-on-install'
p923
NsS'wp81-description'
p924
NsS'ws81-publisher-display-name'
p925
NsS'firefoxos-xulrunner'
p926
NsS'symbian-soundrecordsupport'
p927
NsS'nds-bannertitle-sp'
p928
NsS'psp-producer'
p929
NsS'iphone-apple-wwdr-cert'
p930
NsS'android-icon-nonstandard'
p931
NsS'win32-pref-processtitle'
p932
NsS'nds-bannertitle-hn'
p933
NsS'tizen-dist2-key'
p934
NsS'brew-depends'
p935
NsS'ws81-custom-manifest'
p936
NsS'iphone-icon-ipad-search-ios7'
p937
NsS'brew-icon-medium'
p938
NsS'iphone-bundle-url-name'
p939
NsS'wp8-tile-fliptemplate-large-front-image'
p940
NsS'tizen-dist2-CA-root-path'
p941
NsS'ws81-description'
p942
NsS'uiq3-icon3-format'
p943
NsS'ws81-logo-image30x30'
p944
NsS'win8-phone-extra-res'
p945
(lp946
sS'iphone-signing-host'
p947
NsS'tizen-icon'
p948
NsS'osx-info-plist'
p949
NsS'symbian-icon1-format'
p950
NsS'win8-store-extra-res'
p951
(lp952
sS'blackberry-authorid'
p953
NsS'ws81-publisher-id'
p954
NsS'ws81-distribution-pfx'
p955
NsS'wp8-description'
p956
NsS'iphone-link-opts'
p957
(lp958
sS'ws81-ext-sdk-ref'
p959
(lp960
sS'roku-splash-min-time'
p961
NsS'wp8-tile-fliptemplate-medium-front-image'
p962
NsS'provider'
p963
NsS'playbook-keystore'
p964
NsS'tizen-appid'
p965
NsS'wp8-extra-res'
p966
(lp967
sS'symbian-osexecsupport'
p968
NsS'android-install-location'
p969
NsS'nds-privatesavedatasize'
p970
NsS'playbook-storepass'
p971
NsS'android-icon-ldpi'
p972
NsS'manufacturer'
p973
NsS'itunes-artwork'
p974
NsS'iphone-extra-sections'
p975
NsS'ws81-product-name'
p976
NsS'ws81-ext-native-dll'
p977
(lp978
sS'ws8-extra-pri'
p979
(lp980
sS'wp8-product-id'
p981
NsS'ws8-logo-image30x30'
p982
NsS'wp8-ext-managed-dll'
p983
(lp984
sS'iphone-splashscreen-landscape'
p985
NsS'symbian-maxheapsize'
p986
NsS'nds-makercode'
p987
NsS'priv-sign-key'
p988
NsS'networking'
p989
NsS'android-icon'
p990
NsS'iphone-icon-settings'
p991
NsS'wp81-phone-product-id'
p992
NsS'firefoxos-icon-60X60'
p993
NsS'iphone-distribution-cert'
p994
NsS'android_extra_strings'
p995
NsS'nds-bannertitle-en'
p996
NsS'playbook-cskpass'
p997
NsS'android-so'
p998
(lp999
sS'wp8-higher-mem'
p1000
NsS'wp8-ext-sdk-ref'
p1001
(lp1002
sS'wp8-fast-resume-mode'
p1003
NsS'roku-splash-screen-hd'
p1004
NsS'iphone-bundle-url-schemes'
p1005
NsS'roku-screensaver-private'
p1006
NsS'osx-extra-res'
p1007
(lp1008
sS'ws81-extra-res'
p1009
(lp1010
sS'playbook-icon'
p1011
NsS'uid'
p1012
NsS'pkguid-as-uid'
p1013
NsS'wp81-ext-native-dll'
p1014
(lp1015
sS'tizen-dist1-password'
p1016
NsS'roku-screensaver-title'
p1017
NsS'osx-minimum-osx-version'
p1018
NsS'symbian-cert'
p1019
NsS'iphone-icon'
p1020
NsS'ws81-ext-capabilities'
p1021
(lp1022
sS'ws8-distribution-cer'
p1023
NsS'playbook-access-shared'
p1024
NsS'iphone-icon-ipad-high-res-ios7'
p1025
NsS'iphone-link-libs'
p1026
(lp1027
sS'wp8-exclude-wvga'
p1028
NsS'assets'
p1029
NsS'wp8-tile-fliptemplate-large-back-image'
p1030
NsS'wp8-custom-manifest-fill'
p1031
NsS'pub-sign-key'
p1032
NsS'android-extra-strings'
p1033
NsS'tizen-author-CA-path'
p1034
Nssg337
g567
sbssS'platform'
p1035
S'S3E'
p1036
sg66
S'1.0'
p1037
sS'arcade_platform'
p1038
g4
sS'extensions'
p1039
(dp1040
sS'source_groups_tree'
p1041
(dp1042
S'(libpng)'
p1043
(dp1044
S'h'
p1045
(dp1046
S'c:/marmalade/7.4/modules/third_party/libpng/h/png.h'
p1047
(lp1048
I1
a(dp1049
asS'c:/marmalade/7.4/modules/third_party/libpng/h/pngconf.h'
p1050
(lp1051
I1
ag1049
assS'c:/marmalade/7.4/modules/third_party/libpng/libpng.mkf'
p1052
(lp1053
I1
a(dp1054
assS'(libjpeg)'
p1055
(dp1056
g1045
(dp1057
S'c:/marmalade/7.4/modules/third_party/libjpeg/h/jerror.h'
p1058
(lp1059
I1
a(dp1060
asS'c:/marmalade/7.4/modules/third_party/libjpeg/h/jmemsys.h'
p1061
(lp1062
I1
ag1060
asS'c:/marmalade/7.4/modules/third_party/libjpeg/h/jchuff.h'
p1063
(lp1064
I1
ag1060
asS'c:/marmalade/7.4/modules/third_party/libjpeg/h/jpeglib.h'
p1065
(lp1066
I1
ag1060
asS'c:/marmalade/7.4/modules/third_party/libjpeg/h/cdjpeg.h'
p1067
(lp1068
I1
ag1060
asS'c:/marmalade/7.4/modules/third_party/libjpeg/h/jinclude.h'
p1069
(lp1070
I1
ag1060
asS'c:/marmalade/7.4/modules/third_party/libjpeg/h/jconfig.h'
p1071
(lp1072
I1
ag1060
asS'c:/marmalade/7.4/modules/third_party/libjpeg/h/cderror.h'
p1073
(lp1074
I1
ag1060
asS'c:/marmalade/7.4/modules/third_party/libjpeg/h/jdct.h'
p1075
(lp1076
I1
ag1060
asS'c:/marmalade/7.4/modules/third_party/libjpeg/h/jversion.h'
p1077
(lp1078
I1
ag1060
asS'c:/marmalade/7.4/modules/third_party/libjpeg/h/transupp.h'
p1079
(lp1080
I1
ag1060
asS'c:/marmalade/7.4/modules/third_party/libjpeg/h/jdhuff.h'
p1081
(lp1082
I1
ag1060
asS'c:/marmalade/7.4/modules/third_party/libjpeg/h/jpegint.h'
p1083
(lp1084
I1
ag1060
asS'c:/marmalade/7.4/modules/third_party/libjpeg/h/jmorecfg.h'
p1085
(lp1086
I1
ag1060
assS'c:/marmalade/7.4/modules/third_party/libjpeg/libjpeg.mkf'
p1087
(lp1088
I1
a(dp1089
assS'source'
p1090
(dp1091
S'c:/Marmalade/7.4/examples/GameTutorial/CPP/Stage1/source/main.cpp'
p1092
(lp1093
I1
a(dp1094
asS'c:/Marmalade/7.4/examples/GameTutorial/CPP/Stage1/source/animation.h'
p1095
(lp1096
I1
ag1094
asS'c:/Marmalade/7.4/examples/GameTutorial/CPP/Stage1/source/animation.cpp'
p1097
(lp1098
I1
ag1094
assS'(tiniconv)'
p1099
(dp1100
S'c:/marmalade/7.4/modules/third_party/tiniconv/source/tiniconv_int.h'
p1101
(lp1102
I1
a(dp1103
asS'c:/marmalade/7.4/modules/third_party/tiniconv/tiniconv.mkf'
p1104
(lp1105
I1
a(dp1106
asS'c:/marmalade/7.4/modules/third_party/tiniconv/source/tiniconv.h'
p1107
(lp1108
I1
ag1103
assS'(MarmaladeExampleResources)'
p1109
(dp1110
S'c:/marmalade/7.4/examples/marmaladeexampleresources/marmaladeexampleresources.mkf'
p1111
(lp1112
I1
a(dp1113
assS'(cjson)'
p1114
(dp1115
S'c:/marmalade/7.4/examples/gametutorial/cpp/stage1/libs/cjson-for-marmalade/cJSON.c'
p1116
(lp1117
I1
a(dp1118
asS'c:/marmalade/7.4/examples/gametutorial/cpp/stage1/libs/cjson-for-marmalade/test.c'
p1119
(lp1120
I1
ag1118
asS'c:/marmalade/7.4/examples/gametutorial/cpp/stage1/libs/cjson-for-marmalade/cJSON.h'
p1121
(lp1122
I1
ag1118
asS'c:/marmalade/7.4/examples/gametutorial/cpp/stage1/libs/cjson-for-marmalade/cjson.mkf'
p1123
(lp1124
I1
a(dp1125
assS'Extensions'
p1126
(dp1127
S'PVRTexTool'
p1128
(dp1129
S'interface'
p1130
(dp1131
S'c:/marmalade/7.4/extensions/pvrtextool/interface/PVRTexTool_interface.cpp'
p1132
(lp1133
I1
a(dp1134
asS'c:/marmalade/7.4/extensions/pvrtextool/interface/PVRTexTool.defines.txt'
p1135
(lp1136
I1
ag1134
assS'c:/marmalade/7.4/extensions/pvrtextool/pvrtextool.mkf'
p1137
(lp1138
I1
a(dp1139
asS'c:/marmalade/7.4/extensions/pvrtextool/h/PVRTexTool.h'
p1140
(lp1141
I1
ag1134
asssS"'Marmalade Studio'"
p1142
(dp1143
S'iwgl'
p1144
(dp1145
S'c:/marmalade/7.4/modules/iwgl/iwgl.mkf'
p1146
(lp1147
I1
a(dp1148
asS'c:/marmalade/7.4/modules/iwgl/docs/iwgl.config.txt'
p1149
(lp1150
I1
a(dp1151
asS'c:/marmalade/7.4/modules/iwgl/h/IwGL.h'
p1152
(lp1153
I1
ag1151
asS'c:/marmalade/7.4/modules/iwgl/h/IwGLExt.h'
p1154
(lp1155
I1
ag1151
assS'iw2d'
p1156
(dp1157
S'c:/marmalade/7.4/modules/iw2d/docs/iw2d.config.txt'
p1158
(lp1159
I1
a(dp1160
asS'c:/marmalade/7.4/modules/iw2d/docs/iw2d_public.defines.txt'
p1161
(lp1162
I1
ag1160
asS'c:/marmalade/7.4/modules/iw2d/h/Iw2D.h'
p1163
(lp1164
I1
ag1160
asS'c:/marmalade/7.4/modules/iw2d/iw2d.mkf'
p1165
(lp1166
I1
a(dp1167
assS'iwgxfont'
p1168
(dp1169
S'c:/marmalade/7.4/modules/iwgxfont/docs/iwgxfont_public.defines.txt'
p1170
(lp1171
I1
a(dp1172
asS'c:/marmalade/7.4/modules/iwgxfont/h/IwGxFontGlyph.h'
p1173
(lp1174
I1
ag1172
asS'c:/marmalade/7.4/modules/iwgxfont/docs/iwgxfont.config.txt'
p1175
(lp1176
I1
ag1172
asS'c:/marmalade/7.4/modules/iwgxfont/h/IwGxFont.h'
p1177
(lp1178
I1
ag1172
asS'c:/marmalade/7.4/modules/iwgxfont/h/IwGxFontTypes.h'
p1179
(lp1180
I1
ag1172
asS'c:/marmalade/7.4/modules/iwgxfont/h/IwGxFontPreparedData.h'
p1181
(lp1182
I1
ag1172
asS'c:/marmalade/7.4/modules/iwgxfont/h/IwGxFontState.h'
p1183
(lp1184
I1
ag1172
asS'c:/marmalade/7.4/modules/iwgxfont/h/IwGxFontContainer.h'
p1185
(lp1186
I1
ag1172
asS'c:/marmalade/7.4/modules/iwgxfont/iwgxfont.mkf'
p1187
(lp1188
I1
a(dp1189
assS'iwgeom'
p1190
(dp1191
S'c:/marmalade/7.4/modules/iwgeom/docs/iwgeom.config.txt'
p1192
(lp1193
I1
a(dp1194
asS'c:/marmalade/7.4/modules/iwgeom/h/IwGeomFIntersect.h'
p1195
(lp1196
I1
ag1194
asS'c:/marmalade/7.4/modules/iwgeom/h/IwGeomMat2D.h.tpl'
p1197
(lp1198
I1
ag1194
asS'c:/marmalade/7.4/modules/iwgeom/iwgeom.mkf'
p1199
(lp1200
I1
a(dp1201
asS'c:/marmalade/7.4/modules/iwgeom/h/IwGeomVec.h.tpl'
p1202
(lp1203
I1
ag1194
asS'c:/marmalade/7.4/modules/iwgeom/h/IwGeomFSphere.h'
p1204
(lp1205
I1
ag1194
asS'c:/marmalade/7.4/modules/iwgeom/h/IwGeomFQuat.h'
p1206
(lp1207
I1
ag1194
asS'c:/marmalade/7.4/modules/iwgeom/h/IwGeomMenu.h'
p1208
(lp1209
I1
ag1194
asS'c:/marmalade/7.4/modules/iwgeom/h/IwGeomFMat2D.h'
p1210
(lp1211
I1
ag1194
asS'c:/marmalade/7.4/modules/iwgeom/h/IwGeomFVec4.h'
p1212
(lp1213
I1
ag1194
asS'c:/marmalade/7.4/modules/iwgeom/h/IwGeomQuat.h'
p1214
(lp1215
I1
ag1194
asS'c:/marmalade/7.4/modules/iwgeom/h/IwGeomFBBox.h'
p1216
(lp1217
I1
ag1194
asS'c:/marmalade/7.4/modules/iwgeom/h/IwGeomSVec4.h'
p1218
(lp1219
I1
ag1194
asS'c:/marmalade/7.4/modules/iwgeom/h/IwGeomFVec2.h'
p1220
(lp1221
I1
ag1194
asS'c:/marmalade/7.4/modules/iwgeom/h/IwGeomVec.h'
p1222
(lp1223
I1
ag1194
asS'c:/marmalade/7.4/modules/iwgeom/h/IwGeomPlane.h'
p1224
(lp1225
I1
ag1194
asS'c:/marmalade/7.4/modules/iwgeom/h/IwGeomQuat.h.tpl'
p1226
(lp1227
I1
ag1194
asS'c:/marmalade/7.4/modules/iwgeom/h/IwGeomSVec3.h'
p1228
(lp1229
I1
ag1194
asS'c:/marmalade/7.4/modules/iwgeom/h/IwGeomMat.h'
p1230
(lp1231
I1
ag1194
asS'c:/marmalade/7.4/modules/iwgeom/h/IwGeomVec3.h'
p1232
(lp1233
I1
ag1194
asS'c:/marmalade/7.4/modules/iwgeom/h/IwGeomVec2.h'
p1234
(lp1235
I1
ag1194
asS'c:/marmalade/7.4/modules/iwgeom/h/IwGeomLegacy.h'
p1236
(lp1237
I1
ag1194
asS'c:/marmalade/7.4/modules/iwgeom/h/IwGeomSQuat.h'
p1238
(lp1239
I1
ag1194
asS'c:/marmalade/7.4/modules/iwgeom/h/IwGeomCore.h'
p1240
(lp1241
I1
ag1194
asS'c:/marmalade/7.4/modules/iwgeom/h/IwGeomVec4.h'
p1242
(lp1243
I1
ag1194
asS'c:/marmalade/7.4/modules/iwgeom/h/IwGeomBBox.h'
p1244
(lp1245
I1
ag1194
asS'c:/marmalade/7.4/modules/iwgeom/h/IwGeomIntersect.h'
p1246
(lp1247
I1
ag1194
asS'c:/marmalade/7.4/modules/iwgeom/h/IwGeomSVec2.h'
p1248
(lp1249
I1
ag1194
asS'c:/marmalade/7.4/modules/iwgeom/h/IwGeomMat2D.h'
p1250
(lp1251
I1
ag1194
asS'c:/marmalade/7.4/modules/iwgeom/h/IwGeomSphere.h'
p1252
(lp1253
I1
ag1194
asS'c:/marmalade/7.4/modules/iwgeom/h/IwGeomFVec3.h'
p1254
(lp1255
I1
ag1194
asS'c:/marmalade/7.4/modules/iwgeom/h/IwGeom.h'
p1256
(lp1257
I1
ag1194
asS'c:/marmalade/7.4/modules/iwgeom/h/IwGeomMat.h.tpl'
p1258
(lp1259
I1
ag1194
asS'c:/marmalade/7.4/modules/iwgeom/h/IwGeomFPlane.h'
p1260
(lp1261
I1
ag1194
asS'c:/marmalade/7.4/modules/iwgeom/h/IwGeomFMat.h'
p1262
(lp1263
I1
ag1194
asS'c:/marmalade/7.4/modules/iwgeom/h/IwGeomSqrt.h'
p1264
(lp1265
I1
ag1194
assS'iwresmanager'
p1266
(dp1267
S'c:/marmalade/7.4/modules/iwresmanager/h/IwResHandlerITX.h'
p1268
(lp1269
I1
a(dp1270
asS'c:/marmalade/7.4/modules/iwresmanager/h/IwResGroup.h'
p1271
(lp1272
I1
ag1270
asS'c:/marmalade/7.4/modules/iwresmanager/h/IwResManager.h'
p1273
(lp1274
I1
ag1270
asS'c:/marmalade/7.4/modules/iwresmanager/h/IwResManagerClass.h'
p1275
(lp1276
I1
ag1270
asS'c:/marmalade/7.4/modules/iwresmanager/h/IwResSerialise.h'
p1277
(lp1278
I1
ag1270
asS'c:/marmalade/7.4/modules/iwresmanager/h/IwResHandlerGROUP.h'
p1279
(lp1280
I1
ag1270
asS'c:/marmalade/7.4/modules/iwresmanager/iwresmanager.mkf'
p1281
(lp1282
I1
a(dp1283
asS'c:/marmalade/7.4/modules/iwresmanager/h/IwResHandlerImage.h'
p1284
(lp1285
I1
ag1270
asS'c:/marmalade/7.4/modules/iwresmanager/h/IwResHandler.h'
p1286
(lp1287
I1
ag1270
asS'c:/marmalade/7.4/modules/iwresmanager/docs/iwresmanager.config.txt'
p1288
(lp1289
I1
ag1270
assS'iwgx'
p1290
(dp1291
S'c:/marmalade/7.4/modules/iwgx/h/IwDebugPrim.h'
p1292
(lp1293
I1
a(dp1294
asS'c:/marmalade/7.4/modules/iwgx/h/IwGxFuncTable.h'
p1295
(lp1296
I1
ag1294
asS'c:/marmalade/7.4/modules/iwgx/h/IwClip.inl'
p1297
(lp1298
I1
ag1294
asS'c:/marmalade/7.4/modules/iwgx/h/IwGxPrint.h'
p1299
(lp1300
I1
ag1294
asS'c:/marmalade/7.4/modules/iwgx/h/IwGx.h'
p1301
(lp1302
I1
ag1294
asS'c:/marmalade/7.4/modules/iwgx/h/IwTexture.h'
p1303
(lp1304
I1
ag1294
asS'c:/marmalade/7.4/modules/iwgx/h/IwFColour.h'
p1305
(lp1306
I1
ag1294
asS'c:/marmalade/7.4/modules/iwgx/h/IwColour.h'
p1307
(lp1308
I1
ag1294
asS'c:/marmalade/7.4/modules/iwgx/h/IwGxState.h'
p1309
(lp1310
I1
ag1294
asS'c:/marmalade/7.4/modules/iwgx/h/IwClip.h'
p1311
(lp1312
I1
ag1294
asS'c:/marmalade/7.4/modules/iwgx/h/IwTPage.h'
p1313
(lp1314
I1
ag1294
asS'c:/marmalade/7.4/modules/iwgx/h/IwMaterial.h'
p1315
(lp1316
I1
ag1294
asS'c:/marmalade/7.4/modules/iwgx/h/IwGxDebug.h'
p1317
(lp1318
I1
ag1294
asS'c:/marmalade/7.4/modules/iwgx/h/IwMatAnim.h'
p1319
(lp1320
I1
ag1294
asS'c:/marmalade/7.4/modules/iwgx/h/IwGxStream.h'
p1321
(lp1322
I1
ag1294
asS'c:/marmalade/7.4/modules/iwgx/h/IwResHandlerMTL.h'
p1323
(lp1324
I1
ag1294
asS'c:/marmalade/7.4/modules/iwgx/h/IwGxMetrics.h'
p1325
(lp1326
I1
ag1294
asS'c:/marmalade/7.4/modules/iwgx/h/IwGxError.h'
p1327
(lp1328
I1
ag1294
asS'c:/marmalade/7.4/modules/iwgx/docs/iwgx.config.txt'
p1329
(lp1330
I1
ag1294
asS'c:/marmalade/7.4/modules/iwgx/h/IwGxTransformSW.h'
p1331
(lp1332
I1
ag1294
asS'c:/marmalade/7.4/modules/iwgx/iwgx.mkf'
p1333
(lp1334
I1
a(dp1335
asS'c:/marmalade/7.4/modules/iwgx/docs/iwgx_public.defines.txt'
p1336
(lp1337
I1
ag1294
asS'c:/marmalade/7.4/modules/iwgx/h/IwGxShaderTechnique.h'
p1338
(lp1339
I1
ag1294
asS'c:/marmalade/7.4/modules/iwgx/h/IwGxTypes.h'
p1340
(lp1341
I1
ag1294
asS'c:/marmalade/7.4/modules/iwgx/h/IwGxSurface.h'
p1342
(lp1343
I1
ag1294
assS'iwutil'
p1344
(dp1345
S'c:/marmalade/7.4/modules/iwutil/h/IwTextParser.h'
p1346
(lp1347
I1
a(dp1348
asS'c:/marmalade/7.4/modules/iwutil/h/IwMenu.h'
p1349
(lp1350
I1
ag1348
asS'c:/marmalade/7.4/modules/iwutil/h/IwUtilInitTerm.h'
p1351
(lp1352
I1
ag1348
asS'c:/marmalade/7.4/modules/iwutil/h/IwCopyingPtr.h'
p1353
(lp1354
I1
ag1348
asS'c:/marmalade/7.4/modules/iwutil/h/IwDebug.h'
p1355
(lp1356
I1
ag1348
asS'c:/marmalade/7.4/modules/iwutil/h/IwDivTable.h'
p1357
(lp1358
I1
ag1348
asS'c:/marmalade/7.4/modules/iwutil/h/IwBuffer.h'
p1359
(lp1360
I1
ag1348
asS'c:/marmalade/7.4/modules/iwutil/h/IwRandom.h'
p1361
(lp1362
I1
ag1348
asS'c:/marmalade/7.4/modules/iwutil/h/IwResource.h'
p1363
(lp1364
I1
ag1348
asS'c:/marmalade/7.4/modules/iwutil/h/IwCore.h'
p1365
(lp1366
I1
ag1348
asS'c:/marmalade/7.4/modules/iwutil/h/IwTextParserITX.h'
p1367
(lp1368
I1
ag1348
asS'c:/marmalade/7.4/modules/iwutil/h/IwManaged.h'
p1369
(lp1370
I1
ag1348
asS'c:/marmalade/7.4/modules/iwutil/h/IwHashString.h'
p1371
(lp1372
I1
ag1348
asS'c:/marmalade/7.4/modules/iwutil/h/IwProfileMenu.h'
p1373
(lp1374
I1
ag1348
asS'c:/marmalade/7.4/modules/iwutil/h/IwManagedList.h'
p1375
(lp1376
I1
ag1348
asS'c:/marmalade/7.4/modules/iwutil/h/IwList.h'
p1377
(lp1378
I1
ag1348
asS'c:/marmalade/7.4/modules/iwutil/h/IwSerialise.h'
p1379
(lp1380
I1
ag1348
asS'c:/marmalade/7.4/modules/iwutil/h/IwClassFactory.h'
p1381
(lp1382
I1
ag1348
asS'c:/marmalade/7.4/modules/iwutil/h/IwTypes.h'
p1383
(lp1384
I1
ag1348
asS'c:/marmalade/7.4/modules/iwutil/h/IwAllocator.h'
p1385
(lp1386
I1
ag1348
asS'c:/marmalade/7.4/modules/iwutil/h/IwMemory.h'
p1387
(lp1388
I1
ag1348
asS'c:/marmalade/7.4/modules/iwutil/h/IwTextParseable.h'
p1389
(lp1390
I1
ag1348
asS'c:/marmalade/7.4/modules/iwutil/h/IwFile.h'
p1391
(lp1392
I1
ag1348
asS'c:/marmalade/7.4/modules/iwutil/h/IwRuntime.h'
p1393
(lp1394
I1
ag1348
asS'c:/marmalade/7.4/modules/iwutil/h/IwMemBucketHelpers.h'
p1395
(lp1396
I1
ag1348
asS'c:/marmalade/7.4/modules/iwutil/h/IwUncopyable.h'
p1397
(lp1398
I1
ag1348
asS'c:/marmalade/7.4/modules/iwutil/h/IwChar.h'
p1399
(lp1400
I1
ag1348
asS'c:/marmalade/7.4/modules/iwutil/h/IwOptimiseARM.h'
p1401
(lp1402
I1
ag1348
asS'c:/marmalade/7.4/modules/iwutil/h/IwImage.h'
p1403
(lp1404
I1
ag1348
asS'c:/marmalade/7.4/modules/iwutil/h/IwImageHelper.h'
p1405
(lp1406
I1
ag1348
asS'c:/marmalade/7.4/modules/iwutil/h/IwMemBucket.h'
p1407
(lp1408
I1
ag1348
asS'c:/marmalade/7.4/modules/iwutil/h/IwDivide.h'
p1409
(lp1410
I1
ag1348
asS'c:/marmalade/7.4/modules/iwutil/h/IwOptimiseSpeed.h'
p1411
(lp1412
I1
ag1348
asS'c:/marmalade/7.4/modules/iwutil/h/IwArray.h'
p1413
(lp1414
I1
ag1348
asS'c:/marmalade/7.4/modules/iwutil/docs/iwutil.config.txt'
p1415
(lp1416
I1
ag1348
asS'c:/marmalade/7.4/modules/iwutil/h/IwUTF8.h'
p1417
(lp1418
I1
ag1348
asS'c:/marmalade/7.4/modules/iwutil/h/IwEvent.h'
p1419
(lp1420
I1
ag1348
asS'c:/marmalade/7.4/modules/iwutil/h/IwMath.h'
p1421
(lp1422
I1
ag1348
asS'c:/marmalade/7.4/modules/iwutil/h/IwFibre.h'
p1423
(lp1424
I1
ag1348
asS'c:/marmalade/7.4/modules/iwutil/h/IwString.h'
p1425
(lp1426
I1
ag1348
asS'c:/marmalade/7.4/modules/iwutil/h/IwKeymap.h'
p1427
(lp1428
I1
ag1348
asS'c:/marmalade/7.4/modules/iwutil/iwutil.mkf'
p1429
(lp1430
I1
a(dp1431
asS'c:/marmalade/7.4/modules/iwutil/h/IwSingleton.h'
p1432
(lp1433
I1
ag1348
asS'c:/marmalade/7.4/modules/iwutil/h/IwAutoFile.h'
p1434
(lp1435
I1
ag1348
asS'c:/marmalade/7.4/modules/iwutil/h/IwOptimiseThumb.h'
p1436
(lp1437
I1
ag1348
asS'c:/marmalade/7.4/modules/iwutil/h/IwUtil.h'
p1438
(lp1439
I1
ag1348
asS'c:/marmalade/7.4/modules/iwutil/h/IwPath.h'
p1440
(lp1441
I1
ag1348
asS'c:/marmalade/7.4/modules/iwutil/h/IwMemManagerDL.h'
p1442
(lp1443
I1
ag1348
asS'c:/marmalade/7.4/modules/iwutil/h/IwVariableBitField.h'
p1444
(lp1445
I1
ag1348
asS'c:/marmalade/7.4/modules/iwutil/h/IwOptimiseSize.h'
p1446
(lp1447
I1
ag1348
asssS'(zlib)'
p1448
(dp1449
g1045
(dp1450
S'c:/marmalade/7.4/modules/third_party/zlib/h/zconf.h'
p1451
(lp1452
I1
a(dp1453
asS'c:/marmalade/7.4/modules/third_party/zlib/h/zlib.h'
p1454
(lp1455
I1
ag1453
assS'c:/marmalade/7.4/modules/third_party/zlib/zlib.mkf'
p1456
(lp1457
I1
a(dp1458
assS'(s3e-default)'
p1459
(dp1460
S'c:/marmalade/7.4/s3e/s3e-default.mkf'
p1461
(lp1462
I1
a(dp1463
asssS'files'
p1464
(dp1465
S'IwGxFontPreparedData.h'
p1466
g311
(cmkb_main
File
p1467
g313
Ntp1468
Rp1469
(dp1470
S'flags'
p1471
g1172
sS'group'
p1472
(lp1473
S"'Marmalade Studio'"
p1474
ag1168
asg337
g1181
sbsS'iterator'
p1475
g311
(g1467
g313
Ntp1476
Rp1477
(dp1478
g1471
(dp1479
sg1472
(lp1480
S"'Marmalade System (S3E)'"
p1481
aS'stdc headers'
p1482
aS'c++'
p1483
asg337
S'c:/marmalade/7.4/s3e/h/std/c++/iterator'
p1484
sbsS'IwGL.h'
p1485
g311
(g1467
g313
Ntp1486
Rp1487
(dp1488
g1471
g1151
sg1472
(lp1489
S"'Marmalade Studio'"
p1490
ag1144
asg337
g1152
sbsS's3e.h'
p1491
g311
(g1467
g313
Ntp1492
Rp1493
(dp1494
g1471
g1479
sg1472
(lp1495
g1481
asg337
S'c:/marmalade/7.4/s3e/h/s3e.h'
p1496
sbsS'errno.h'
p1497
g311
(g1467
g313
Ntp1498
Rp1499
(dp1500
g1471
g1479
sg1472
(lp1501
g1481
aS'stdc headers'
p1502
asg337
S'c:/marmalade/7.4/s3e/h/std/errno.h'
p1503
sbsS'IwSingleton.h'
p1504
g311
(g1467
g313
Ntp1505
Rp1506
(dp1507
g1471
g1348
sg1472
(lp1508
S"'Marmalade Studio'"
p1509
ag1344
asg337
g1432
sbsS'dlfcn.h'
p1510
g311
(g1467
g313
Ntp1511
Rp1512
(dp1513
g1471
g1479
sg1472
g1501
sg337
S'c:/marmalade/7.4/s3e/h/std/dlfcn.h'
p1514
sbsS'stdio_streambuf'
p1515
g311
(g1467
g313
Ntp1516
Rp1517
(dp1518
g1471
g1479
sg1472
g1480
sg337
S'c:/marmalade/7.4/s3e/h/std/c++/stdio_streambuf'
p1519
sbsS'sched.h'
p1520
g311
(g1467
g313
Ntp1521
Rp1522
(dp1523
g1471
g1479
sg1472
g1501
sg337
S'c:/marmalade/7.4/s3e/h/std/sched.h'
p1524
sbsS'IwGeomFMat2D.h'
p1525
g311
(g1467
g313
Ntp1526
Rp1527
(dp1528
g1471
g1194
sg1472
(lp1529
S"'Marmalade Studio'"
p1530
ag1190
asg337
g1210
sbsS's3eExt.h'
p1531
g311
(g1467
g313
Ntp1532
Rp1533
(dp1534
g1471
g1479
sg1472
g1495
sg337
S'c:/marmalade/7.4/s3e/h/s3eExt.h'
p1535
sbsS'grp.h'
p1536
g311
(g1467
g313
Ntp1537
Rp1538
(dp1539
g1471
g1479
sg1472
g1501
sg337
S'c:/marmalade/7.4/s3e/h/std/grp.h'
p1540
sbsS'list'
p1541
g311
(g1467
g313
Ntp1542
Rp1543
(dp1544
g1471
g1479
sg1472
g1480
sg337
S'c:/marmalade/7.4/s3e/h/std/c++/list'
p1545
sbsS'IwGeomMat.h.tpl'
p1546
g311
(g1467
g313
Ntp1547
Rp1548
(dp1549
g1471
g1194
sg1472
g1529
sg337
g1258
sbsS'istream'
p1550
g311
(g1467
g313
Ntp1551
Rp1552
(dp1553
g1471
g1479
sg1472
g1480
sg337
S'c:/marmalade/7.4/s3e/h/std/c++/istream'
p1554
sbsS'jpeglib.h'
p1555
g311
(g1467
g313
Ntp1556
Rp1557
(dp1558
g1471
g1060
sg1472
(lp1559
g1055
ag1045
asg337
g1065
sbsS'iw2d_public.defines.txt'
p1560
g311
(g1467
g313
Ntp1561
Rp1562
(dp1563
g1471
g1160
sg1472
(lp1564
S"'Marmalade Studio'"
p1565
ag1156
asg337
g1161
sbsS'iostream.h'
p1566
g311
(g1467
g313
Ntp1567
Rp1568
(dp1569
g1471
g1479
sg1472
g1480
sg337
S'c:/marmalade/7.4/s3e/h/std/c++/iostream.h'
p1570
sbsS'string'
p1571
g311
(g1467
g313
Ntp1572
Rp1573
(dp1574
g1471
g1479
sg1472
g1480
sg337
S'c:/marmalade/7.4/s3e/h/std/c++/string'
p1575
sbsS'IwMemory.h'
p1576
g311
(g1467
g313
Ntp1577
Rp1578
(dp1579
g1471
g1348
sg1472
g1508
sg337
g1387
sbsS'IwGeomPlane.h'
p1580
g311
(g1467
g313
Ntp1581
Rp1582
(dp1583
g1471
g1194
sg1472
g1529
sg337
g1224
sbsS'iw2d.config.txt'
p1584
g311
(g1467
g313
Ntp1585
Rp1586
(dp1587
g1471
g1160
sg1472
g1564
sg337
g1158
sbsS'iomanip'
p1588
g311
(g1467
g313
Ntp1589
Rp1590
(dp1591
g1471
g1479
sg1472
g1480
sg337
S'c:/marmalade/7.4/s3e/h/std/c++/iomanip'
p1592
sbsS'iwgeom.mkf'
p1593
g311
(g1467
g313
Ntp1594
Rp1595
(dp1596
g1471
g1201
sg1472
g1529
sg337
g1199
sbsS'IwGxError.h'
p1597
g311
(g1467
g313
Ntp1598
Rp1599
(dp1600
g1471
g1294
sg1472
(lp1601
S"'Marmalade Studio'"
p1602
ag1290
asg337
g1327
sbsS'IwGeom.h'
p1603
g311
(g1467
g313
Ntp1604
Rp1605
(dp1606
g1471
g1194
sg1472
g1529
sg337
g1256
sbsS'IwGeomVec4.h'
p1607
g311
(g1467
g313
Ntp1608
Rp1609
(dp1610
g1471
g1194
sg1472
g1529
sg337
g1242
sbsS'dir.h'
p1611
g311
(g1467
g313
Ntp1612
Rp1613
(dp1614
g1471
g1479
sg1472
(lp1615
g1481
aS'stdc headers'
p1616
aS'sys'
p1617
asg337
S'c:/marmalade/7.4/s3e/h/std/sys/dir.h'
p1618
sbsS'locale.h'
p1619
g311
(g1467
g313
Ntp1620
Rp1621
(dp1622
g1471
g1479
sg1472
g1501
sg337
S'c:/marmalade/7.4/s3e/h/std/locale.h'
p1623
sbsS'vector'
p1624
g311
(g1467
g313
Ntp1625
Rp1626
(dp1627
g1471
g1479
sg1472
g1480
sg337
S'c:/marmalade/7.4/s3e/h/std/c++/vector'
p1628
sbsS'IwManaged.h'
p1629
g311
(g1467
g313
Ntp1630
Rp1631
(dp1632
g1471
g1348
sg1472
g1508
sg337
g1369
sbsS's3eCompass.h'
p1633
g311
(g1467
g313
Ntp1634
Rp1635
(dp1636
g1471
g1479
sg1472
g1495
sg337
S'c:/marmalade/7.4/s3e/h/s3eCompass.h'
p1637
sbsS'cderror.h'
p1638
g311
(g1467
g313
Ntp1639
Rp1640
(dp1641
g1471
g1060
sg1472
g1559
sg337
g1073
sbsS'climits'
p1642
g311
(g1467
g313
Ntp1643
Rp1644
(dp1645
g1471
g1479
sg1472
g1480
sg337
S'c:/marmalade/7.4/s3e/h/std/c++/climits'
p1646
sbsS's3eVibra.h'
p1647
g311
(g1467
g313
Ntp1648
Rp1649
(dp1650
g1471
g1479
sg1472
g1495
sg337
S'c:/marmalade/7.4/s3e/h/s3eVibra.h'
p1651
sbsS'jversion.h'
p1652
g311
(g1467
g313
Ntp1653
Rp1654
(dp1655
g1471
g1060
sg1472
g1559
sg337
g1077
sbsS'fnmatch.h'
p1656
g311
(g1467
g313
Ntp1657
Rp1658
(dp1659
g1471
g1479
sg1472
g1501
sg337
S'c:/marmalade/7.4/s3e/h/std/fnmatch.h'
p1660
sbsS'IwGxState.h'
p1661
g311
(g1467
g313
Ntp1662
Rp1663
(dp1664
g1471
g1294
sg1472
g1601
sg337
g1309
sbsS's3eAudio.h'
p1665
g311
(g1467
g313
Ntp1666
Rp1667
(dp1668
g1471
g1479
sg1472
g1495
sg337
S'c:/marmalade/7.4/s3e/h/s3eAudio.h'
p1669
sbsS's3eSurface.h'
p1670
g311
(g1467
g313
Ntp1671
Rp1672
(dp1673
g1471
g1479
sg1472
g1495
sg337
S'c:/marmalade/7.4/s3e/h/s3eSurface.h'
p1674
sbsS'new'
p1675
g311
(g1467
g313
Ntp1676
Rp1677
(dp1678
g1471
g1479
sg1472
g1480
sg337
S'c:/marmalade/7.4/s3e/h/std/c++/new'
p1679
sbsS's3eWindow.h'
p1680
g311
(g1467
g313
Ntp1681
Rp1682
(dp1683
g1471
g1479
sg1472
(lp1684
g1481
aS'Extensions'
p1685
asg337
S'c:/marmalade/7.4/s3e/h/ext/s3eWindow.h'
p1686
sbsS'IwBuffer.h'
p1687
g311
(g1467
g313
Ntp1688
Rp1689
(dp1690
g1471
g1348
sg1472
g1508
sg337
g1359
sbsS'IwGeomQuat.h.tpl'
p1691
g311
(g1467
g313
Ntp1692
Rp1693
(dp1694
g1471
g1194
sg1472
g1529
sg337
g1226
sbsS's3eOSExec.h'
p1695
g311
(g1467
g313
Ntp1696
Rp1697
(dp1698
g1471
g1479
sg1472
g1684
sg337
S'c:/marmalade/7.4/s3e/h/ext/s3eOSExec.h'
p1699
sbsS'IwGxTransformSW.h'
p1700
g311
(g1467
g313
Ntp1701
Rp1702
(dp1703
g1471
g1294
sg1472
g1601
sg337
g1331
sbsS'animation.h'
p1704
g311
(g1467
g313
Ntp1705
Rp1706
(dp1707
g1471
g1094
sg1472
(lp1708
g1090
asg337
g1095
sbsS'iwgxfont.config.txt'
p1709
g311
(g1467
g313
Ntp1710
Rp1711
(dp1712
g1471
g1172
sg1472
g1473
sg337
g1175
sbsS'gl2platform.h'
p1713
g311
(g1467
g313
Ntp1714
Rp1715
(dp1716
g1471
g1479
sg1472
(lp1717
g1481
aS'GL'
p1718
aS'GLES 2.0'
p1719
asg337
S'c:/marmalade/7.4/s3e/h/GLES2/gl2platform.h'
p1720
sbsS'IwResManagerClass.h'
p1721
g311
(g1467
g313
Ntp1722
Rp1723
(dp1724
g1471
g1270
sg1472
(lp1725
g1142
ag1266
asg337
g1275
sbsS'queue'
p1726
g311
(g1467
g313
Ntp1727
Rp1728
(dp1729
g1471
g1479
sg1472
g1480
sg337
S'c:/marmalade/7.4/s3e/h/std/c++/queue'
p1730
sbsS'time_1.h'
p1731
g311
(g1467
g313
Ntp1732
Rp1733
(dp1734
g1471
g1479
sg1472
g1615
sg337
S'c:/marmalade/7.4/s3e/h/std/sys/time.h'
p1735
sbsS'Iw2D.h'
p1736
g311
(g1467
g313
Ntp1737
Rp1738
(dp1739
g1471
g1160
sg1472
g1564
sg337
g1163
sbsS'IwGeomVec2.h'
p1740
g311
(g1467
g313
Ntp1741
Rp1742
(dp1743
g1471
g1194
sg1472
g1529
sg337
g1234
sbsS's3eDevice.h'
p1744
g311
(g1467
g313
Ntp1745
Rp1746
(dp1747
g1471
g1479
sg1472
g1495
sg337
S'c:/marmalade/7.4/s3e/h/s3eDevice.h'
p1748
sbsS'malloc.h'
p1749
g311
(g1467
g313
Ntp1750
Rp1751
(dp1752
g1471
g1479
sg1472
g1501
sg337
S'c:/marmalade/7.4/s3e/h/std/malloc.h'
p1753
sbsS'stdarg.h'
p1754
g311
(g1467
g313
Ntp1755
Rp1756
(dp1757
g1471
g1479
sg1472
g1501
sg337
S'c:/marmalade/7.4/s3e/h/std/stdarg.h'
p1758
sbsS'IwGeomCore.h'
p1759
g311
(g1467
g313
Ntp1760
Rp1761
(dp1762
g1471
g1194
sg1472
g1529
sg337
g1240
sbsS'endian.h'
p1763
g311
(g1467
g313
Ntp1764
Rp1765
(dp1766
g1471
g1479
sg1472
g1501
sg337
S'c:/marmalade/7.4/s3e/h/std/endian.h'
p1767
sbsS'gl3ext.h'
p1768
g311
(g1467
g313
Ntp1769
Rp1770
(dp1771
g1471
g1479
sg1472
(lp1772
g1481
aS'GL'
p1773
aS'GLES 3.0'
p1774
asg337
S'c:/marmalade/7.4/s3e/h/GLES3/gl3ext.h'
p1775
sbsS'glob.h'
p1776
g311
(g1467
g313
Ntp1777
Rp1778
(dp1779
g1471
g1479
sg1472
g1501
sg337
S'c:/marmalade/7.4/s3e/h/std/glob.h'
p1780
sbsS'fstream'
p1781
g311
(g1467
g313
Ntp1782
Rp1783
(dp1784
g1471
g1479
sg1472
g1480
sg337
S'c:/marmalade/7.4/s3e/h/std/c++/fstream'
p1785
sbsS's3eCamera.h'
p1786
g311
(g1467
g313
Ntp1787
Rp1788
(dp1789
g1471
g1479
sg1472
g1495
sg337
S'c:/marmalade/7.4/s3e/h/s3eCamera.h'
p1790
sbsS'jconfig.h'
p1791
g311
(g1467
g313
Ntp1792
Rp1793
(dp1794
g1471
g1060
sg1472
g1559
sg337
g1071
sbsS'memory'
p1795
g311
(g1467
g313
Ntp1796
Rp1797
(dp1798
g1471
g1479
sg1472
g1480
sg337
S'c:/marmalade/7.4/s3e/h/std/c++/memory'
p1799
sbsS'egl.h'
p1800
g311
(g1467
g313
Ntp1801
Rp1802
(dp1803
g1471
g1479
sg1472
(lp1804
g1481
aS'GL'
p1805
aS'EGL'
p1806
asg337
S'c:/marmalade/7.4/s3e/h/EGL/egl.h'
p1807
sbsS'IwClip.inl'
p1808
g311
(g1467
g313
Ntp1809
Rp1810
(dp1811
g1471
g1294
sg1472
g1601
sg337
g1297
sbsS'IwMemManagerDL.h'
p1812
g311
(g1467
g313
Ntp1813
Rp1814
(dp1815
g1471
g1348
sg1472
g1508
sg337
g1442
sbsS'deque'
p1816
g311
(g1467
g313
Ntp1817
Rp1818
(dp1819
g1471
g1479
sg1472
g1480
sg337
S'c:/marmalade/7.4/s3e/h/std/c++/deque'
p1820
sbsS'IwString.h'
p1821
g311
(g1467
g313
Ntp1822
Rp1823
(dp1824
g1471
g1348
sg1472
g1508
sg337
g1425
sbsS'cwchar'
p1825
g311
(g1467
g313
Ntp1826
Rp1827
(dp1828
g1471
g1479
sg1472
g1480
sg337
S'c:/marmalade/7.4/s3e/h/std/c++/cwchar'
p1829
sbsS'iwutil.mkf'
p1830
g311
(g1467
g313
Ntp1831
Rp1832
(dp1833
g1471
g1431
sg1472
g1508
sg337
g1429
sbsS'csignal'
p1834
g311
(g1467
g313
Ntp1835
Rp1836
(dp1837
g1471
g1479
sg1472
g1480
sg337
S'c:/marmalade/7.4/s3e/h/std/c++/csignal'
p1838
sbsS'float.h'
p1839
g311
(g1467
g313
Ntp1840
Rp1841
(dp1842
g1471
g1479
sg1472
g1501
sg337
S'c:/marmalade/7.4/s3e/h/std/float.h'
p1843
sbsS'pthread_alloc'
p1844
g311
(g1467
g313
Ntp1845
Rp1846
(dp1847
g1471
g1479
sg1472
g1480
sg337
S'c:/marmalade/7.4/s3e/h/std/c++/pthread_alloc'
p1848
sbsS'getopt.h'
p1849
g311
(g1467
g313
Ntp1850
Rp1851
(dp1852
g1471
g1479
sg1472
g1501
sg337
S'c:/marmalade/7.4/s3e/h/std/getopt.h'
p1853
sbsS'IwOptimiseARM.h'
p1854
g311
(g1467
g313
Ntp1855
Rp1856
(dp1857
g1471
g1348
sg1472
g1508
sg337
g1401
sbsS'times.h'
p1858
g311
(g1467
g313
Ntp1859
Rp1860
(dp1861
g1471
g1479
sg1472
g1615
sg337
S'c:/marmalade/7.4/s3e/h/std/sys/times.h'
p1862
sbsS'IwGeomFSphere.h'
p1863
g311
(g1467
g313
Ntp1864
Rp1865
(dp1866
g1471
g1194
sg1472
g1529
sg337
g1204
sbsS'functional'
p1867
g311
(g1467
g313
Ntp1868
Rp1869
(dp1870
g1471
g1479
sg1472
g1480
sg337
S'c:/marmalade/7.4/s3e/h/std/c++/functional'
p1871
sbsS'IwTypes.h'
p1872
g311
(g1467
g313
Ntp1873
Rp1874
(dp1875
g1471
g1348
sg1472
g1508
sg337
g1383
sbsS'unistd.h'
p1876
g311
(g1467
g313
Ntp1877
Rp1878
(dp1879
g1471
g1479
sg1472
g1501
sg337
S'c:/marmalade/7.4/s3e/h/std/unistd.h'
p1880
sbsS's3eCompression.h'
p1881
g311
(g1467
g313
Ntp1882
Rp1883
(dp1884
g1471
g1479
sg1472
g1495
sg337
S'c:/marmalade/7.4/s3e/h/s3eCompression.h'
p1885
sbsS'langinfo.h'
p1886
g311
(g1467
g313
Ntp1887
Rp1888
(dp1889
g1471
g1479
sg1472
g1501
sg337
S'c:/marmalade/7.4/s3e/h/std/langinfo.h'
p1890
sbsS's3edebugHeap.h'
p1891
g311
(g1467
g313
Ntp1892
Rp1893
(dp1894
g1471
g1479
sg1472
g1684
sg337
S'c:/marmalade/7.4/s3e/h/ext/s3edebugHeap.h'
p1895
sbsS'AirplayVersion.h'
p1896
g311
(g1467
g313
Ntp1897
Rp1898
(dp1899
g1471
g1479
sg1472
g1495
sg337
S'c:/marmalade/7.4/s3e/h/AirplayVersion.h'
p1900
sbsS'gl2extimg.h'
p1901
g311
(g1467
g313
Ntp1902
Rp1903
(dp1904
g1471
g1479
sg1472
g1717
sg337
S'c:/marmalade/7.4/s3e/h/GLES2/gl2extimg.h'
p1905
sbsS'IwGeomSqrt.h'
p1906
g311
(g1467
g313
Ntp1907
Rp1908
(dp1909
g1471
g1194
sg1472
g1529
sg337
g1264
sbsS'tiniconv_int.h'
p1910
g311
(g1467
g313
Ntp1911
Rp1912
(dp1913
g1471
g1103
sg1472
(lp1914
g1099
asg337
g1101
sbsS'syslog.h'
p1915
g311
(g1467
g313
Ntp1916
Rp1917
(dp1918
g1471
g1479
sg1472
g1501
sg337
S'c:/marmalade/7.4/s3e/h/std/syslog.h'
p1919
sbsS'IwGxFontTypes.h'
p1920
g311
(g1467
g313
Ntp1921
Rp1922
(dp1923
g1471
g1172
sg1472
g1473
sg337
g1179
sbsS'IwGeomFIntersect.h'
p1924
g311
(g1467
g313
Ntp1925
Rp1926
(dp1927
g1471
g1194
sg1472
g1529
sg337
g1195
sbsS'hash_map'
p1928
g311
(g1467
g313
Ntp1929
Rp1930
(dp1931
g1471
g1479
sg1472
g1480
sg337
S'c:/marmalade/7.4/s3e/h/std/c++/hash_map'
p1932
sbsS's3e.mkf'
p1933
g311
(g1467
g313
Ntp1934
Rp1935
(dp1936
g1471
(dp1937
sg1472
g1495
sg337
S'c:/marmalade/7.4/s3e/s3e.mkf'
p1938
sbsS'IwGeomMat2D.h.tpl'
p1939
g311
(g1467
g313
Ntp1940
Rp1941
(dp1942
g1471
g1194
sg1472
g1529
sg337
g1197
sbsS's3eOSReadString.h'
p1943
g311
(g1467
g313
Ntp1944
Rp1945
(dp1946
g1471
g1479
sg1472
g1684
sg337
S'c:/marmalade/7.4/s3e/h/ext/s3eOSReadString.h'
p1947
sbsS'map'
p1948
g311
(g1467
g313
Ntp1949
Rp1950
(dp1951
g1471
g1479
sg1472
g1480
sg337
S'c:/marmalade/7.4/s3e/h/std/c++/map'
p1952
sbsS'IwOptimiseSpeed.h'
p1953
g311
(g1467
g313
Ntp1954
Rp1955
(dp1956
g1471
g1348
sg1472
g1508
sg337
g1411
sbsS'msl_string.h'
p1957
g311
(g1467
g313
Ntp1958
Rp1959
(dp1960
g1471
g1479
sg1472
g1480
sg337
S'c:/marmalade/7.4/s3e/h/std/c++/msl_string.h'
p1961
sbsS'select.h'
p1962
g311
(g1467
g313
Ntp1963
Rp1964
(dp1965
g1471
g1479
sg1472
g1615
sg337
S'c:/marmalade/7.4/s3e/h/std/sys/select.h'
p1966
sbsS'zlib.mkf'
p1967
g311
(g1467
g313
Ntp1968
Rp1969
(dp1970
g1471
g1458
sg1472
(lp1971
g1448
asg337
g1456
sbsS'signal.h'
p1972
g311
(g1467
g313
Ntp1973
Rp1974
(dp1975
g1471
g1479
sg1472
g1501
sg337
S'c:/marmalade/7.4/s3e/h/std/signal.h'
p1976
sbsS'sigcontext.h'
p1977
g311
(g1467
g313
Ntp1978
Rp1979
(dp1980
g1471
g1479
sg1472
g1501
sg337
S'c:/marmalade/7.4/s3e/h/std/sigcontext.h'
p1981
sbsS'libpng.mkf'
p1982
g311
(g1467
g313
Ntp1983
Rp1984
(dp1985
g1471
g1054
sg1472
(lp1986
g1043
asg337
g1052
sbsS's3eClipboard.h'
p1987
g311
(g1467
g313
Ntp1988
Rp1989
(dp1990
g1471
g1479
sg1472
g1495
sg337
S'c:/marmalade/7.4/s3e/h/s3eClipboard.h'
p1991
sbsS'IwGxFuncTable.h'
p1992
g311
(g1467
g313
Ntp1993
Rp1994
(dp1995
g1471
g1294
sg1472
g1601
sg337
g1295
sbsS'IwResHandlerGROUP.h'
p1996
g311
(g1467
g313
Ntp1997
Rp1998
(dp1999
g1471
g1270
sg1472
g1725
sg337
g1279
sbsS's3eDebug.h'
p2000
g311
(g1467
g313
Ntp2001
Rp2002
(dp2003
g1471
g1479
sg1472
g1495
sg337
S'c:/marmalade/7.4/s3e/h/s3eDebug.h'
p2004
sbsS'socket.h'
p2005
g311
(g1467
g313
Ntp2006
Rp2007
(dp2008
g1471
g1479
sg1472
g1615
sg337
S'c:/marmalade/7.4/s3e/h/std/sys/socket.h'
p2009
sbsS'glext.h'
p2010
g311
(g1467
g313
Ntp2011
Rp2012
(dp2013
g1471
g1479
sg1472
(lp2014
g1481
aS'GL'
p2015
aS'GLES 1.x'
p2016
asg337
S'c:/marmalade/7.4/s3e/h/GLES/glext.h'
p2017
sbsS'typeinfo.h'
p2018
g311
(g1467
g313
Ntp2019
Rp2020
(dp2021
g1471
g1479
sg1472
g1480
sg337
S'c:/marmalade/7.4/s3e/h/std/c++/typeinfo.h'
p2022
sbsS'typeinfo'
p2023
g311
(g1467
g313
Ntp2024
Rp2025
(dp2026
g1471
g1479
sg1472
g1480
sg337
S'c:/marmalade/7.4/s3e/h/std/c++/typeinfo'
p2027
sbsS'fstream.h'
p2028
g311
(g1467
g313
Ntp2029
Rp2030
(dp2031
g1471
g1479
sg1472
g1480
sg337
S'c:/marmalade/7.4/s3e/h/std/c++/fstream.h'
p2032
sbsS'cjson.mkf'
p2033
g311
(g1467
g313
Ntp2034
Rp2035
(dp2036
g1471
g1125
sg1472
(lp2037
g1114
asg337
g1123
sbsS'IwMemBucket.h'
p2038
g311
(g1467
g313
Ntp2039
Rp2040
(dp2041
g1471
g1348
sg1472
g1508
sg337
g1407
sbsS'PVRTexTool.h'
p2042
g311
(g1467
g313
Ntp2043
Rp2044
(dp2045
g1471
g1134
sg1472
(lp2046
g1126
ag1128
asg337
g1140
sbsS's3eGL.h'
p2047
g311
(g1467
g313
Ntp2048
Rp2049
(dp2050
g1471
g1479
sg1472
g1495
sg337
S'c:/marmalade/7.4/s3e/h/s3eGL.h'
p2051
sbsS'IwGeomFVec2.h'
p2052
g311
(g1467
g313
Ntp2053
Rp2054
(dp2055
g1471
g1194
sg1472
g1529
sg337
g1220
sbsS'IwGeomSVec4.h'
p2056
g311
(g1467
g313
Ntp2057
Rp2058
(dp2059
g1471
g1194
sg1472
g1529
sg337
g1218
sbsS'poll.h'
p2060
g311
(g1467
g313
Ntp2061
Rp2062
(dp2063
g1471
g1479
sg1472
g1501
sg337
S'c:/marmalade/7.4/s3e/h/std/poll.h'
p2064
sbsS'IwMatAnim.h'
p2065
g311
(g1467
g313
Ntp2066
Rp2067
(dp2068
g1471
g1294
sg1472
g1601
sg337
g1319
sbsS'PVRTexTool.defines.txt'
p2069
g311
(g1467
g313
Ntp2070
Rp2071
(dp2072
g1471
g1134
sg1472
(lp2073
g1126
ag1128
ag1130
asg337
g1135
sbsS'IwGx.h'
p2074
g311
(g1467
g313
Ntp2075
Rp2076
(dp2077
g1471
g1294
sg1472
g1601
sg337
g1301
sbsS'valarray'
p2078
g311
(g1467
g313
Ntp2079
Rp2080
(dp2081
g1471
g1479
sg1472
g1480
sg337
S'c:/marmalade/7.4/s3e/h/std/c++/valarray'
p2082
sbsS'iosfwd'
p2083
g311
(g1467
g313
Ntp2084
Rp2085
(dp2086
g1471
g1479
sg1472
g1480
sg337
S'c:/marmalade/7.4/s3e/h/std/c++/iosfwd'
p2087
sbsS'gl2.h'
p2088
g311
(g1467
g313
Ntp2089
Rp2090
(dp2091
g1471
g1479
sg1472
g1717
sg337
S'c:/marmalade/7.4/s3e/h/GLES2/gl2.h'
p2092
sbsS'jpegint.h'
p2093
g311
(g1467
g313
Ntp2094
Rp2095
(dp2096
g1471
g1060
sg1472
g1559
sg337
g1083
sbsS'stdiostream.h'
p2097
g311
(g1467
g313
Ntp2098
Rp2099
(dp2100
g1471
g1479
sg1472
g1480
sg337
S'c:/marmalade/7.4/s3e/h/std/c++/stdiostream.h'
p2101
sbsS'mem.h'
p2102
g311
(g1467
g313
Ntp2103
Rp2104
(dp2105
g1471
g1479
sg1472
g1480
sg337
S'c:/marmalade/7.4/s3e/h/std/c++/mem.h'
p2106
sbsS'jerror.h'
p2107
g311
(g1467
g313
Ntp2108
Rp2109
(dp2110
g1471
g1060
sg1472
g1559
sg337
g1058
sbsS'zconf.h'
p2111
g311
(g1467
g313
Ntp2112
Rp2113
(dp2114
g1471
g1453
sg1472
(lp2115
g1448
ag1045
asg337
g1451
sbsS's3e.config.txt'
p2116
g311
(g1467
g313
Ntp2117
Rp2118
(dp2119
g1471
g1479
sg1472
g1495
sg337
S'c:/marmalade/7.4/s3e/s3e.config.txt'
p2120
sbsS'numeric'
p2121
g311
(g1467
g313
Ntp2122
Rp2123
(dp2124
g1471
g1479
sg1472
g1480
sg337
S'c:/marmalade/7.4/s3e/h/std/c++/numeric'
p2125
sbsS'utime.h'
p2126
g311
(g1467
g313
Ntp2127
Rp2128
(dp2129
g1471
g1479
sg1472
g1501
sg337
S'c:/marmalade/7.4/s3e/h/std/utime.h'
p2130
sbsS'jdhuff.h'
p2131
g311
(g1467
g313
Ntp2132
Rp2133
(dp2134
g1471
g1060
sg1472
g1559
sg337
g1081
sbsS'IwGxStream.h'
p2135
g311
(g1467
g313
Ntp2136
Rp2137
(dp2138
g1471
g1294
sg1472
g1601
sg337
g1321
sbsS'IwImage.h'
p2139
g311
(g1467
g313
Ntp2140
Rp2141
(dp2142
g1471
g1348
sg1472
g1508
sg337
g1403
sbsS's3eImagePicker.h'
p2143
g311
(g1467
g313
Ntp2144
Rp2145
(dp2146
g1471
g1479
sg1472
g1684
sg337
S'c:/marmalade/7.4/s3e/h/ext/s3eImagePicker.h'
p2147
sbsS'IwTextParserITX.h'
p2148
g311
(g1467
g313
Ntp2149
Rp2150
(dp2151
g1471
g1348
sg1472
g1508
sg337
g1367
sbsS'stdlib.h'
p2152
g311
(g1467
g313
Ntp2153
Rp2154
(dp2155
g1471
g1479
sg1472
g1501
sg337
S'c:/marmalade/7.4/s3e/h/std/stdlib.h'
p2156
sbsS'IwCopyingPtr.h'
p2157
g311
(g1467
g313
Ntp2158
Rp2159
(dp2160
g1471
g1348
sg1472
g1508
sg337
g1353
sbsS'iostream'
p2161
g311
(g1467
g313
Ntp2162
Rp2163
(dp2164
g1471
g1479
sg1472
g1480
sg337
S'c:/marmalade/7.4/s3e/h/std/c++/iostream'
p2165
sbsS'png.h'
p2166
g311
(g1467
g313
Ntp2167
Rp2168
(dp2169
g1471
g1049
sg1472
(lp2170
g1043
ag1045
asg337
g1047
sbsS'stddef.h'
p2171
g311
(g1467
g313
Ntp2172
Rp2173
(dp2174
g1471
g1479
sg1472
g1501
sg337
S'c:/marmalade/7.4/s3e/h/std/stddef.h'
p2175
sbsS'setjmp_win32.h'
p2176
g311
(g1467
g313
Ntp2177
Rp2178
(dp2179
g1471
g1479
sg1472
g1501
sg337
S'c:/marmalade/7.4/s3e/h/std/setjmp_win32.h'
p2180
sbsS'IwGxPrint.h'
p2181
g311
(g1467
g313
Ntp2182
Rp2183
(dp2184
g1471
g1294
sg1472
g1601
sg337
g1299
sbsS'iwgx_public.defines.txt'
p2185
g311
(g1467
g313
Ntp2186
Rp2187
(dp2188
g1471
g1294
sg1472
g1601
sg337
g1336
sbsS'streambuf.h'
p2189
g311
(g1467
g313
Ntp2190
Rp2191
(dp2192
g1471
g1479
sg1472
g1480
sg337
S'c:/marmalade/7.4/s3e/h/std/c++/streambuf.h'
p2193
sbsS'IwGeomFPlane.h'
p2194
g311
(g1467
g313
Ntp2195
Rp2196
(dp2197
g1471
g1194
sg1472
g1529
sg337
g1260
sbsS'wchar.h'
p2198
g311
(g1467
g313
Ntp2199
Rp2200
(dp2201
g1471
g1479
sg1472
g1501
sg337
S'c:/marmalade/7.4/s3e/h/std/wchar.h'
p2202
sbsS's3eCameraCapture.h'
p2203
g311
(g1467
g313
Ntp2204
Rp2205
(dp2206
g1471
g1479
sg1472
g1684
sg337
S'c:/marmalade/7.4/s3e/h/ext/s3eCameraCapture.h'
p2207
sbsS'eglext.h'
p2208
g311
(g1467
g313
Ntp2209
Rp2210
(dp2211
g1471
g1479
sg1472
g1804
sg337
S'c:/marmalade/7.4/s3e/h/EGL/eglext.h'
p2212
sbsS'IwResHandlerImage.h'
p2213
g311
(g1467
g313
Ntp2214
Rp2215
(dp2216
g1471
g1270
sg1472
g1725
sg337
g1284
sbsS'strstream.h'
p2217
g311
(g1467
g313
Ntp2218
Rp2219
(dp2220
g1471
g1479
sg1472
g1480
sg337
S'c:/marmalade/7.4/s3e/h/std/c++/strstream.h'
p2221
sbsS'tiniconv.h'
p2222
g311
(g1467
g313
Ntp2223
Rp2224
(dp2225
g1471
g1103
sg1472
g1914
sg337
g1107
sbsS'IwGLExt.h'
p2226
g311
(g1467
g313
Ntp2227
Rp2228
(dp2229
g1471
g1151
sg1472
g1489
sg337
g1154
sbsS'app.icf'
p2230
g311
(g1467
g313
Ntp2231
Rp2232
(dp2233
g1471
(dp2234
sg1472
g4
sg337
S'c:/Marmalade/7.4/examples/GameTutorial/CPP/Stage1/data/app.icf'
p2235
sbsS'IwClassFactory.h'
p2236
g311
(g1467
g313
Ntp2237
Rp2238
(dp2239
g1471
g1348
sg1472
g1508
sg337
g1381
sbsS'file.h'
p2240
g311
(g1467
g313
Ntp2241
Rp2242
(dp2243
g1471
g1479
sg1472
g1615
sg337
S'c:/marmalade/7.4/s3e/h/std/sys/file.h'
p2244
sbsS'cstring'
p2245
g311
(g1467
g313
Ntp2246
Rp2247
(dp2248
g1471
g1479
sg1472
g1480
sg337
S'c:/marmalade/7.4/s3e/h/std/c++/cstring'
p2249
sbsS'iwutil.config.txt'
p2250
g311
(g1467
g313
Ntp2251
Rp2252
(dp2253
g1471
g1348
sg1472
g1508
sg337
g1415
sbsS's3eSMS.h'
p2254
g311
(g1467
g313
Ntp2255
Rp2256
(dp2257
g1471
g1479
sg1472
g1684
sg337
S'c:/marmalade/7.4/s3e/h/ext/s3eSMS.h'
p2258
sbsS'limits.h'
p2259
g311
(g1467
g313
Ntp2260
Rp2261
(dp2262
g1471
g1479
sg1472
g1501
sg337
S'c:/marmalade/7.4/s3e/h/std/limits.h'
p2263
sbsS'iwgl.config.txt'
p2264
g311
(g1467
g313
Ntp2265
Rp2266
(dp2267
g1471
g1151
sg1472
g1489
sg337
g1149
sbsS'cJSON.h'
p2268
g311
(g1467
g313
Ntp2269
Rp2270
(dp2271
g1471
g1118
sg1472
g2037
sg337
g1121
sbsS'IwMaterial.h'
p2272
g311
(g1467
g313
Ntp2273
Rp2274
(dp2275
g1471
g1294
sg1472
g1601
sg337
g1315
sbsS'cJSON.c'
p2276
g311
(g1467
g313
Ntp2277
Rp2278
(dp2279
g1471
g1118
sg1472
g2037
sg337
g1116
sbsS'PVRTexTool_interface.cpp'
p2280
g311
(g1467
g313
Ntp2281
Rp2282
(dp2283
g1471
g1134
sg1472
g2073
sg337
g1132
sbsS'IwGxSurface.h'
p2284
g311
(g1467
g313
Ntp2285
Rp2286
(dp2287
g1471
g1294
sg1472
g1601
sg337
g1342
sbsS's3eSocket.h'
p2288
g311
(g1467
g313
Ntp2289
Rp2290
(dp2291
g1471
g1479
sg1472
g1495
sg337
S'c:/marmalade/7.4/s3e/h/s3eSocket.h'
p2292
sbsS'IwAutoFile.h'
p2293
g311
(g1467
g313
Ntp2294
Rp2295
(dp2296
g1471
g1348
sg1472
g1508
sg337
g1434
sbsS'ipc.h'
p2297
g311
(g1467
g313
Ntp2298
Rp2299
(dp2300
g1471
g1479
sg1472
g1615
sg337
S'c:/marmalade/7.4/s3e/h/std/sys/ipc.h'
p2301
sbsS'poll_1.h'
p2302
g311
(g1467
g313
Ntp2303
Rp2304
(dp2305
g1471
g1479
sg1472
g1615
sg337
S'c:/marmalade/7.4/s3e/h/std/sys/poll.h'
p2306
sbsS's3eThread.h'
p2307
g311
(g1467
g313
Ntp2308
Rp2309
(dp2310
g1471
g1479
sg1472
g1495
sg337
S'c:/marmalade/7.4/s3e/h/s3eThread.h'
p2311
sbsS'ucontext.h'
p2312
g311
(g1467
g313
Ntp2313
Rp2314
(dp2315
g1471
g1479
sg1472
g1501
sg337
S'c:/marmalade/7.4/s3e/h/std/ucontext.h'
p2316
sbsS'time.h'
p2317
g311
(g1467
g313
Ntp2318
Rp2319
(dp2320
g1471
g1479
sg1472
g1501
sg337
S'c:/marmalade/7.4/s3e/h/std/time.h'
p2321
sbsS'jchuff.h'
p2322
g311
(g1467
g313
Ntp2323
Rp2324
(dp2325
g1471
g1060
sg1472
g1559
sg337
g1063
sbsS's3eSoundRecord.h'
p2326
g311
(g1467
g313
Ntp2327
Rp2328
(dp2329
g1471
g1479
sg1472
g1495
sg337
S'c:/marmalade/7.4/s3e/h/s3eSoundRecord.h'
p2330
sbsS'IwFibre.h'
p2331
g311
(g1467
g313
Ntp2332
Rp2333
(dp2334
g1471
g1348
sg1472
g1508
sg337
g1423
sbsS's3eVersion.h'
p2335
g311
(g1467
g313
Ntp2336
Rp2337
(dp2338
g1471
g1479
sg1472
g1495
sg337
S'c:/marmalade/7.4/s3e/h/s3eVersion.h'
p2339
sbsS'IwGxFontGlyph.h'
p2340
g311
(g1467
g313
Ntp2341
Rp2342
(dp2343
g1471
g1172
sg1472
g1473
sg337
g1173
sbsS's3eTypes.h'
p2344
g311
(g1467
g313
Ntp2345
Rp2346
(dp2347
g1471
g1479
sg1472
g1495
sg337
S'c:/marmalade/7.4/s3e/h/s3eTypes.h'
p2348
sbsS'signal_2.h'
p2349
g311
(g1467
g313
Ntp2350
Rp2351
(dp2352
g1471
g1479
sg1472
g1480
sg337
S'c:/marmalade/7.4/s3e/h/std/c++/signal.h'
p2353
sbsS'termios.h'
p2354
g311
(g1467
g313
Ntp2355
Rp2356
(dp2357
g1471
g1479
sg1472
g1501
sg337
S'c:/marmalade/7.4/s3e/h/std/termios.h'
p2358
sbsS'slist'
p2359
g311
(g1467
g313
Ntp2360
Rp2361
(dp2362
g1471
g1479
sg1472
g1480
sg337
S'c:/marmalade/7.4/s3e/h/std/c++/slist'
p2363
sbsS'cstdlib'
p2364
g311
(g1467
g313
Ntp2365
Rp2366
(dp2367
g1471
g1479
sg1472
g1480
sg337
S'c:/marmalade/7.4/s3e/h/std/c++/cstdlib'
p2368
sbsS's3eLocation.h'
p2369
g311
(g1467
g313
Ntp2370
Rp2371
(dp2372
g1471
g1479
sg1472
g1495
sg337
S'c:/marmalade/7.4/s3e/h/s3eLocation.h'
p2373
sbsS'IwMemBucketHelpers.h'
p2374
g311
(g1467
g313
Ntp2375
Rp2376
(dp2377
g1471
g1348
sg1472
g1508
sg337
g1395
sbsS's3eHash.h'
p2378
g311
(g1467
g313
Ntp2379
Rp2380
(dp2381
g1471
g1479
sg1472
g1495
sg337
S'c:/marmalade/7.4/s3e/h/s3eHash.h'
p2382
sbsS'IwGeomFMat.h'
p2383
g311
(g1467
g313
Ntp2384
Rp2385
(dp2386
g1471
g1194
sg1472
g1529
sg337
g1262
sbsS'animation.cpp'
p2387
g311
(g1467
g313
Ntp2388
Rp2389
(dp2390
g1471
g1094
sg1472
g1708
sg337
g1097
sbsS'type_traits.h'
p2391
g311
(g1467
g313
Ntp2392
Rp2393
(dp2394
g1471
g1479
sg1472
g1480
sg337
S'c:/marmalade/7.4/s3e/h/std/c++/type_traits.h'
p2395
sbsS'IwMenu.h'
p2396
g311
(g1467
g313
Ntp2397
Rp2398
(dp2399
g1471
g1348
sg1472
g1508
sg337
g1349
sbsS'IwResHandlerITX.h'
p2400
g311
(g1467
g313
Ntp2401
Rp2402
(dp2403
g1471
g1270
sg1472
g1725
sg337
g1268
sbsS'IwArray.h'
p2404
g311
(g1467
g313
Ntp2405
Rp2406
(dp2407
g1471
g1348
sg1472
g1508
sg337
g1413
sbsS'IwUTF8.h'
p2408
g311
(g1467
g313
Ntp2409
Rp2410
(dp2411
g1471
g1348
sg1472
g1508
sg337
g1417
sbsS'math_rvct.h'
p2412
g311
(g1467
g313
Ntp2413
Rp2414
(dp2415
g1471
g1479
sg1472
g1501
sg337
S'c:/marmalade/7.4/s3e/h/std/math_rvct.h'
p2416
sbsS'IwUtil.h'
p2417
g311
(g1467
g313
Ntp2418
Rp2419
(dp2420
g1471
g1348
sg1472
g1508
sg337
g1438
sbsS'IwFColour.h'
p2421
g311
(g1467
g313
Ntp2422
Rp2423
(dp2424
g1471
g1294
sg1472
g1601
sg337
g1305
sbsS'wctype.h'
p2425
g311
(g1467
g313
Ntp2426
Rp2427
(dp2428
g1471
g1479
sg1472
g1501
sg337
S'c:/marmalade/7.4/s3e/h/std/wctype.h'
p2429
sbsS'cstddef'
p2430
g311
(g1467
g313
Ntp2431
Rp2432
(dp2433
g1471
g1479
sg1472
g1480
sg337
S'c:/marmalade/7.4/s3e/h/std/c++/cstddef'
p2434
sbsS'assert.h'
p2435
g311
(g1467
g313
Ntp2436
Rp2437
(dp2438
g1471
g1479
sg1472
g1501
sg337
S'c:/marmalade/7.4/s3e/h/std/assert.h'
p2439
sbsS'mman.h'
p2440
g311
(g1467
g313
Ntp2441
Rp2442
(dp2443
g1471
g1479
sg1472
g1615
sg337
S'c:/marmalade/7.4/s3e/h/std/sys/mman.h'
p2444
sbsS'IwRandom.h'
p2445
g311
(g1467
g313
Ntp2446
Rp2447
(dp2448
g1471
g1348
sg1472
g1508
sg337
g1361
sbsS'libgen.h'
p2449
g311
(g1467
g313
Ntp2450
Rp2451
(dp2452
g1471
g1479
sg1472
g1501
sg337
S'c:/marmalade/7.4/s3e/h/std/libgen.h'
p2453
sbsS'utsname.h'
p2454
g311
(g1467
g313
Ntp2455
Rp2456
(dp2457
g1471
g1479
sg1472
g1615
sg337
S'c:/marmalade/7.4/s3e/h/std/sys/utsname.h'
p2458
sbsS'wait.h'
p2459
g311
(g1467
g313
Ntp2460
Rp2461
(dp2462
g1471
g1479
sg1472
g1615
sg337
S'c:/marmalade/7.4/s3e/h/std/sys/wait.h'
p2463
sbsS'param.h'
p2464
g311
(g1467
g313
Ntp2465
Rp2466
(dp2467
g1471
g1479
sg1472
g1615
sg337
S'c:/marmalade/7.4/s3e/h/std/sys/param.h'
p2468
sbsS'IwDivide.h'
p2469
g311
(g1467
g313
Ntp2470
Rp2471
(dp2472
g1471
g1348
sg1472
g1508
sg337
g1409
sbsS'IwResManager.h'
p2473
g311
(g1467
g313
Ntp2474
Rp2475
(dp2476
g1471
g1270
sg1472
g1725
sg337
g1273
sbsS'ostream'
p2477
g311
(g1467
g313
Ntp2478
Rp2479
(dp2480
g1471
g1479
sg1472
g1480
sg337
S'c:/marmalade/7.4/s3e/h/std/c++/ostream'
p2481
sbsS'cwctype'
p2482
g311
(g1467
g313
Ntp2483
Rp2484
(dp2485
g1471
g1479
sg1472
g1480
sg337
S'c:/marmalade/7.4/s3e/h/std/c++/cwctype'
p2486
sbsS's3ePointer.h'
p2487
g311
(g1467
g313
Ntp2488
Rp2489
(dp2490
g1471
g1479
sg1472
g1495
sg337
S'c:/marmalade/7.4/s3e/h/s3ePointer.h'
p2491
sbsS'set'
p2492
g311
(g1467
g313
Ntp2493
Rp2494
(dp2495
g1471
g1479
sg1472
g1480
sg337
S'c:/marmalade/7.4/s3e/h/std/c++/set'
p2496
sbsS'IwGeomSQuat.h'
p2497
g311
(g1467
g313
Ntp2498
Rp2499
(dp2500
g1471
g1194
sg1472
g1529
sg337
g1238
sbsS'locale'
p2501
g311
(g1467
g313
Ntp2502
Rp2503
(dp2504
g1471
g1479
sg1472
g1480
sg337
S'c:/marmalade/7.4/s3e/h/std/c++/locale'
p2505
sbsS'cstdio'
p2506
g311
(g1467
g313
Ntp2507
Rp2508
(dp2509
g1471
g1479
sg1472
g1480
sg337
S'c:/marmalade/7.4/s3e/h/std/c++/cstdio'
p2510
sbsS'cdjpeg.h'
p2511
g311
(g1467
g313
Ntp2512
Rp2513
(dp2514
g1471
g1060
sg1472
g1559
sg337
g1067
sbsS'IwList.h'
p2515
g311
(g1467
g313
Ntp2516
Rp2517
(dp2518
g1471
g1348
sg1472
g1508
sg337
g1377
sbsS'inttypes.h'
p2519
g311
(g1467
g313
Ntp2520
Rp2521
(dp2522
g1471
g1479
sg1472
g1501
sg337
S'c:/marmalade/7.4/s3e/h/std/inttypes.h'
p2523
sbsS'test.c'
p2524
g311
(g1467
g313
Ntp2525
Rp2526
(dp2527
g1471
g1118
sg1472
g2037
sg337
g1119
sbsS'dirent.h'
p2528
g311
(g1467
g313
Ntp2529
Rp2530
(dp2531
g1471
g1479
sg1472
g1501
sg337
S'c:/marmalade/7.4/s3e/h/std/dirent.h'
p2532
sbsS'IwGeomVec3.h'
p2533
g311
(g1467
g313
Ntp2534
Rp2535
(dp2536
g1471
g1194
sg1472
g1529
sg337
g1232
sbsS'transupp.h'
p2537
g311
(g1467
g313
Ntp2538
Rp2539
(dp2540
g1471
g1060
sg1472
g1559
sg337
g1079
sbsS'IwMath.h'
p2541
g311
(g1467
g313
Ntp2542
Rp2543
(dp2544
g1471
g1348
sg1472
g1508
sg337
g1421
sbsS'IwGeomQuat.h'
p2545
g311
(g1467
g313
Ntp2546
Rp2547
(dp2548
g1471
g1194
sg1472
g1529
sg337
g1214
sbsS'glplatform.h'
p2549
g311
(g1467
g313
Ntp2550
Rp2551
(dp2552
g1471
g1479
sg1472
g2014
sg337
S'c:/marmalade/7.4/s3e/h/GLES/glplatform.h'
p2553
sbsS's3e-default.mkf'
p2554
g311
(g1467
g313
Ntp2555
Rp2556
(dp2557
g1471
g1463
sg1472
(lp2558
g1459
asg337
g1461
sbsS'bitset'
p2559
g311
(g1467
g313
Ntp2560
Rp2561
(dp2562
g1471
g1479
sg1472
g1480
sg337
S'c:/marmalade/7.4/s3e/h/std/c++/bitset'
p2563
sbsS'alloca.h'
p2564
g311
(g1467
g313
Ntp2565
Rp2566
(dp2567
g1471
g1479
sg1472
g1501
sg337
S'c:/marmalade/7.4/s3e/h/std/alloca.h'
p2568
sbsS'IwResHandler.h'
p2569
g311
(g1467
g313
Ntp2570
Rp2571
(dp2572
g1471
g1270
sg1472
g1725
sg337
g1286
sbsS'IwResHandlerMTL.h'
p2573
g311
(g1467
g313
Ntp2574
Rp2575
(dp2576
g1471
g1294
sg1472
g1601
sg337
g1323
sbsS'IwRuntime.h'
p2577
g311
(g1467
g313
Ntp2578
Rp2579
(dp2580
g1471
g1348
sg1472
g1508
sg337
g1393
sbsS'limits'
p2581
g311
(g1467
g313
Ntp2582
Rp2583
(dp2584
g1471
g1479
sg1472
g1480
sg337
S'c:/marmalade/7.4/s3e/h/std/c++/limits'
p2585
sbsS'IwGeomBBox.h'
p2586
g311
(g1467
g313
Ntp2587
Rp2588
(dp2589
g1471
g1194
sg1472
g1529
sg337
g1244
sbsS's3eContacts.h'
p2590
g311
(g1467
g313
Ntp2591
Rp2592
(dp2593
g1471
g1479
sg1472
g1495
sg337
S'c:/marmalade/7.4/s3e/h/s3eContacts.h'
p2594
sbsS's3eLicense.h'
p2595
g311
(g1467
g313
Ntp2596
Rp2597
(dp2598
g1471
g1479
sg1472
g1495
sg337
S'c:/marmalade/7.4/s3e/h/s3eLicense.h'
p2599
sbsS'iwgx.config.txt'
p2600
g311
(g1467
g313
Ntp2601
Rp2602
(dp2603
g1471
g1294
sg1472
g1601
sg337
g1329
sbsS'IwTextParser.h'
p2604
g311
(g1467
g313
Ntp2605
Rp2606
(dp2607
g1471
g1348
sg1472
g1508
sg337
g1346
sbsS's3eTimer.h'
p2608
g311
(g1467
g313
Ntp2609
Rp2610
(dp2611
g1471
g1479
sg1472
g1495
sg337
S'c:/marmalade/7.4/s3e/h/s3eTimer.h'
p2612
sbsS'IwGeomVec.h'
p2613
g311
(g1467
g313
Ntp2614
Rp2615
(dp2616
g1471
g1194
sg1472
g1529
sg337
g1222
sbsS'IwSerialise.h'
p2617
g311
(g1467
g313
Ntp2618
Rp2619
(dp2620
g1471
g1348
sg1472
g1508
sg337
g1379
sbsS'cstdarg'
p2621
g311
(g1467
g313
Ntp2622
Rp2623
(dp2624
g1471
g1479
sg1472
g1480
sg337
S'c:/marmalade/7.4/s3e/h/std/c++/cstdarg'
p2625
sbsS'gl2ext.h'
p2626
g311
(g1467
g313
Ntp2627
Rp2628
(dp2629
g1471
g1479
sg1472
g1717
sg337
S'c:/marmalade/7.4/s3e/h/GLES2/gl2ext.h'
p2630
sbsS'IwChar.h'
p2631
g311
(g1467
g313
Ntp2632
Rp2633
(dp2634
g1471
g1348
sg1472
g1508
sg337
g1399
sbsS's3eSound.h'
p2635
g311
(g1467
g313
Ntp2636
Rp2637
(dp2638
g1471
g1479
sg1472
g1495
sg337
S'c:/marmalade/7.4/s3e/h/s3eSound.h'
p2639
sbsS'IwVariableBitField.h'
p2640
g311
(g1467
g313
Ntp2641
Rp2642
(dp2643
g1471
g1348
sg1472
g1508
sg337
g1444
sbsS'exception.h'
p2644
g311
(g1467
g313
Ntp2645
Rp2646
(dp2647
g1471
g1479
sg1472
g1480
sg337
S'c:/marmalade/7.4/s3e/h/std/c++/exception.h'
p2648
sbsS'iwgeom.config.txt'
p2649
g311
(g1467
g313
Ntp2650
Rp2651
(dp2652
g1471
g1194
sg1472
g1529
sg337
g1192
sbsS'iwgx.mkf'
p2653
g311
(g1467
g313
Ntp2654
Rp2655
(dp2656
g1471
g1335
sg1472
g1601
sg337
g1333
sbsS'gl.h'
p2657
g311
(g1467
g313
Ntp2658
Rp2659
(dp2660
g1471
g1479
sg1472
g2014
sg337
S'c:/marmalade/7.4/s3e/h/GLES/gl.h'
p2661
sbsS'zlib.h'
p2662
g311
(g1467
g313
Ntp2663
Rp2664
(dp2665
g1471
g1453
sg1472
g2115
sg337
g1454
sbsS'temp_defines_release.h'
p2666
g311
(g1467
g313
Ntp2667
Rp2668
(dp2669
g1471
(lp2670
sg1472
(lp2671
S"'generated files'"
p2672
asg337
S'c:/Marmalade/7.4/examples/GameTutorial/CPP/Stage1/build_stage1_vc10x/temp_defines_release.h'
p2673
sbsS'iwgl.mkf'
p2674
g311
(g1467
g313
Ntp2675
Rp2676
(dp2677
g1471
g1148
sg1472
g1489
sg337
g1146
sbsS'IwColour.h'
p2678
g311
(g1467
g313
Ntp2679
Rp2680
(dp2681
g1471
g1294
sg1472
g1601
sg337
g1307
sbsS's3eLibrary.h'
p2682
g311
(g1467
g313
Ntp2683
Rp2684
(dp2685
g1471
g1479
sg1472
g1684
sg337
S'c:/marmalade/7.4/s3e/h/ext/s3eLibrary.h'
p2686
sbsS'types.h'
p2687
g311
(g1467
g313
Ntp2688
Rp2689
(dp2690
g1471
g1479
sg1472
g1615
sg337
S'c:/marmalade/7.4/s3e/h/std/sys/types.h'
p2691
sbsS'ifaddrs.h'
p2692
g311
(g1467
g313
Ntp2693
Rp2694
(dp2695
g1471
g1479
sg1472
g1501
sg337
S'c:/marmalade/7.4/s3e/h/std/ifaddrs.h'
p2696
sbsS'strstream'
p2697
g311
(g1467
g313
Ntp2698
Rp2699
(dp2700
g1471
g1479
sg1472
g1480
sg337
S'c:/marmalade/7.4/s3e/h/std/c++/strstream'
p2701
sbsS'exception'
p2702
g311
(g1467
g313
Ntp2703
Rp2704
(dp2705
g1471
g1479
sg1472
g1480
sg337
S'c:/marmalade/7.4/s3e/h/std/c++/exception'
p2706
sbsS'rlocks.h'
p2707
g311
(g1467
g313
Ntp2708
Rp2709
(dp2710
g1471
g1479
sg1472
g1480
sg337
S'c:/marmalade/7.4/s3e/h/std/c++/rlocks.h'
p2711
sbsS'ioctl.h'
p2712
g311
(g1467
g313
Ntp2713
Rp2714
(dp2715
g1471
g1479
sg1472
g1615
sg337
S'c:/marmalade/7.4/s3e/h/std/sys/ioctl.h'
p2716
sbsS'rope'
p2717
g311
(g1467
g313
Ntp2718
Rp2719
(dp2720
g1471
g1479
sg1472
g1480
sg337
S'c:/marmalade/7.4/s3e/h/std/c++/rope'
p2721
sbsS'jinclude.h'
p2722
g311
(g1467
g313
Ntp2723
Rp2724
(dp2725
g1471
g1060
sg1472
g1559
sg337
g1069
sbsS'IwEvent.h'
p2726
g311
(g1467
g313
Ntp2727
Rp2728
(dp2729
g1471
g1348
sg1472
g1508
sg337
g1419
sbsS'IwOptimiseSize.h'
p2730
g311
(g1467
g313
Ntp2731
Rp2732
(dp2733
g1471
g1348
sg1472
g1508
sg337
g1446
sbsS'iwgxfont_public.defines.txt'
p2734
g311
(g1467
g313
Ntp2735
Rp2736
(dp2737
g1471
g1172
sg1472
g1473
sg337
g1170
sbsS'iconv.h'
p2738
g311
(g1467
g313
Ntp2739
Rp2740
(dp2741
g1471
g1479
sg1472
g1501
sg337
S'c:/marmalade/7.4/s3e/h/std/iconv.h'
p2742
sbsS'sendfile.h'
p2743
g311
(g1467
g313
Ntp2744
Rp2745
(dp2746
g1471
g1479
sg1472
g1615
sg337
S'c:/marmalade/7.4/s3e/h/std/sys/sendfile.h'
p2747
sbsS'IwGeomSphere.h'
p2748
g311
(g1467
g313
Ntp2749
Rp2750
(dp2751
g1471
g1194
sg1472
g1529
sg337
g1252
sbsS'tiniconv.mkf'
p2752
g311
(g1467
g313
Ntp2753
Rp2754
(dp2755
g1471
g1106
sg1472
g1914
sg337
g1104
sbsS'jdct.h'
p2756
g311
(g1467
g313
Ntp2757
Rp2758
(dp2759
g1471
g1060
sg1472
g1559
sg337
g1075
sbsS'cctype'
p2760
g311
(g1467
g313
Ntp2761
Rp2762
(dp2763
g1471
g1479
sg1472
g1480
sg337
S'c:/marmalade/7.4/s3e/h/std/c++/cctype'
p2764
sbsS's3eConfig.h'
p2765
g311
(g1467
g313
Ntp2766
Rp2767
(dp2768
g1471
g1479
sg1472
g1495
sg337
S'c:/marmalade/7.4/s3e/h/s3eConfig.h'
p2769
sbsS'IwHashString.h'
p2770
g311
(g1467
g313
Ntp2771
Rp2772
(dp2773
g1471
g1348
sg1472
g1508
sg337
g1371
sbsS'stat.h'
p2774
g311
(g1467
g313
Ntp2775
Rp2776
(dp2777
g1471
g1479
sg1472
g1615
sg337
S'c:/marmalade/7.4/s3e/h/std/sys/stat.h'
p2778
sbsS'byteswap.h'
p2779
g311
(g1467
g313
Ntp2780
Rp2781
(dp2782
g1471
g1479
sg1472
g1501
sg337
S'c:/marmalade/7.4/s3e/h/std/byteswap.h'
p2783
sbsS'iwresmanager.mkf'
p2784
g311
(g1467
g313
Ntp2785
Rp2786
(dp2787
g1471
g1283
sg1472
g1725
sg337
g1281
sbsS'IwUtilInitTerm.h'
p2788
g311
(g1467
g313
Ntp2789
Rp2790
(dp2791
g1471
g1348
sg1472
g1508
sg337
g1351
sbsS'pthread_1.h'
p2792
g311
(g1467
g313
Ntp2793
Rp2794
(dp2795
g1471
g1479
sg1472
g1480
sg337
S'c:/marmalade/7.4/s3e/h/std/c++/pthread.h'
p2796
sbsS'iw2d.mkf'
p2797
g311
(g1467
g313
Ntp2798
Rp2799
(dp2800
g1471
g1167
sg1472
g1564
sg337
g1165
sbsS'complex'
p2801
g311
(g1467
g313
Ntp2802
Rp2803
(dp2804
g1471
g1479
sg1472
g1480
sg337
S'c:/marmalade/7.4/s3e/h/std/c++/complex'
p2805
sbsS's3e.icf'
p2806
g311
(g1467
g313
Ntp2807
Rp2808
(dp2809
g1471
g1479
sg1472
g1495
sg337
S'c:/marmalade/7.4/s3e/s3e.icf'
p2810
sbsS'sem.h'
p2811
g311
(g1467
g313
Ntp2812
Rp2813
(dp2814
g1471
g1479
sg1472
g1615
sg337
S'c:/marmalade/7.4/s3e/h/std/sys/sem.h'
p2815
sbsS'IwGxFontState.h'
p2816
g311
(g1467
g313
Ntp2817
Rp2818
(dp2819
g1471
g1172
sg1472
g1473
sg337
g1183
sbsS'marmaladeexampleresources.mkf'
p2820
g311
(g1467
g313
Ntp2821
Rp2822
(dp2823
g1471
g1113
sg1472
(lp2824
g1109
asg337
g1111
sbsS'stdio.h'
p2825
g311
(g1467
g313
Ntp2826
Rp2827
(dp2828
g1471
g1479
sg1472
g1501
sg337
S'c:/marmalade/7.4/s3e/h/std/stdio.h'
p2829
sbsS'jmemsys.h'
p2830
g311
(g1467
g313
Ntp2831
Rp2832
(dp2833
g1471
g1060
sg1472
g1559
sg337
g1061
sbsS'ios'
p2834
g311
(g1467
g313
Ntp2835
Rp2836
(dp2837
g1471
g1479
sg1472
g1480
sg337
S'c:/marmalade/7.4/s3e/h/std/c++/ios'
p2838
sbsS'IwGeomFVec4.h'
p2839
g311
(g1467
g313
Ntp2840
Rp2841
(dp2842
g1471
g1194
sg1472
g1529
sg337
g1212
sbsS'stack'
p2843
g311
(g1467
g313
Ntp2844
Rp2845
(dp2846
g1471
g1479
sg1472
g1480
sg337
S'c:/marmalade/7.4/s3e/h/std/c++/stack'
p2847
sbsS'new.h'
p2848
g311
(g1467
g313
Ntp2849
Rp2850
(dp2851
g1471
g1479
sg1472
g1480
sg337
S'c:/marmalade/7.4/s3e/h/std/c++/new.h'
p2852
sbsS's3eEMail.h'
p2853
g311
(g1467
g313
Ntp2854
Rp2855
(dp2856
g1471
g1479
sg1472
g1684
sg337
S'c:/marmalade/7.4/s3e/h/ext/s3eEMail.h'
p2857
sbsS's3eVideo.h'
p2858
g311
(g1467
g313
Ntp2859
Rp2860
(dp2861
g1471
g1479
sg1472
g1495
sg337
S'c:/marmalade/7.4/s3e/h/s3eVideo.h'
p2862
sbsS'pngconf.h'
p2863
g311
(g1467
g313
Ntp2864
Rp2865
(dp2866
g1471
g1049
sg1472
g2170
sg337
g1050
sbsS'pwd.h'
p2867
g311
(g1467
g313
Ntp2868
Rp2869
(dp2870
g1471
g1479
sg1472
g1501
sg337
S'c:/marmalade/7.4/s3e/h/std/pwd.h'
p2871
sbsS'IwOptimiseThumb.h'
p2872
g311
(g1467
g313
Ntp2873
Rp2874
(dp2875
g1471
g1348
sg1472
g1508
sg337
g1436
sbsS'gl3.h'
p2876
g311
(g1467
g313
Ntp2877
Rp2878
(dp2879
g1471
g1479
sg1472
g1772
sg337
S'c:/marmalade/7.4/s3e/h/GLES3/gl3.h'
p2880
sbsS'IwClip.h'
p2881
g311
(g1467
g313
Ntp2882
Rp2883
(dp2884
g1471
g1294
sg1472
g1601
sg337
g1311
sbsS'iwresmanager.config.txt'
p2885
g311
(g1467
g313
Ntp2886
Rp2887
(dp2888
g1471
g1270
sg1472
g1725
sg337
g1288
sbsS'IwGxShaderTechnique.h'
p2889
g311
(g1467
g313
Ntp2890
Rp2891
(dp2892
g1471
g1294
sg1472
g1601
sg337
g1338
sbsS'IwCore.h'
p2893
g311
(g1467
g313
Ntp2894
Rp2895
(dp2896
g1471
g1348
sg1472
g1508
sg337
g1365
sbsS'cfloat'
p2897
g311
(g1467
g313
Ntp2898
Rp2899
(dp2900
g1471
g1479
sg1472
g1480
sg337
S'c:/marmalade/7.4/s3e/h/std/c++/cfloat'
p2901
sbsS'IwGeomMat2D.h'
p2902
g311
(g1467
g313
Ntp2903
Rp2904
(dp2905
g1471
g1194
sg1472
g1529
sg337
g1250
sbsS'IwAllocator.h'
p2906
g311
(g1467
g313
Ntp2907
Rp2908
(dp2909
g1471
g1348
sg1472
g1508
sg337
g1385
sbsS'IwPath.h'
p2910
g311
(g1467
g313
Ntp2911
Rp2912
(dp2913
g1471
g1348
sg1472
g1508
sg337
g1440
sbsS'iwgxfont.mkf'
p2914
g311
(g1467
g313
Ntp2915
Rp2916
(dp2917
g1471
g1189
sg1472
g1473
sg337
g1187
sbsS'IwTexture.h'
p2918
g311
(g1467
g313
Ntp2919
Rp2920
(dp2921
g1471
g1294
sg1472
g1601
sg337
g1303
sbsS'IwGeomVec.h.tpl'
p2922
g311
(g1467
g313
Ntp2923
Rp2924
(dp2925
g1471
g1194
sg1472
g1529
sg337
g1202
sbsS's3eAccelerometer.h'
p2926
g311
(g1467
g313
Ntp2927
Rp2928
(dp2929
g1471
g1479
sg1472
g1495
sg337
S'c:/marmalade/7.4/s3e/h/s3eAccelerometer.h'
p2930
sbsS'setjmp.h'
p2931
g311
(g1467
g313
Ntp2932
Rp2933
(dp2934
g1471
g1479
sg1472
g1501
sg337
S'c:/marmalade/7.4/s3e/h/std/setjmp.h'
p2935
sbsS'IwFile.h'
p2936
g311
(g1467
g313
Ntp2937
Rp2938
(dp2939
g1471
g1348
sg1472
g1508
sg337
g1391
sbsS'IwTextParseable.h'
p2940
g311
(g1467
g313
Ntp2941
Rp2942
(dp2943
g1471
g1348
sg1472
g1508
sg337
g1389
sbsS'istream.h'
p2944
g311
(g1467
g313
Ntp2945
Rp2946
(dp2947
g1471
g1479
sg1472
g1480
sg337
S'c:/marmalade/7.4/s3e/h/std/c++/istream.h'
p2948
sbsS'stdint.h'
p2949
g311
(g1467
g313
Ntp2950
Rp2951
(dp2952
g1471
g1479
sg1472
g1501
sg337
S'c:/marmalade/7.4/s3e/h/std/stdint.h'
p2953
sbsS'semaphore.h'
p2954
g311
(g1467
g313
Ntp2955
Rp2956
(dp2957
g1471
g1479
sg1472
g1501
sg337
S'c:/marmalade/7.4/s3e/h/std/semaphore.h'
p2958
sbsS'ctime'
p2959
g311
(g1467
g313
Ntp2960
Rp2961
(dp2962
g1471
g1479
sg1472
g1480
sg337
S'c:/marmalade/7.4/s3e/h/std/c++/ctime'
p2963
sbsS'sstream'
p2964
g311
(g1467
g313
Ntp2965
Rp2966
(dp2967
g1471
g1479
sg1472
g1480
sg337
S'c:/marmalade/7.4/s3e/h/std/c++/sstream'
p2968
sbsS'IwGeomFBBox.h'
p2969
g311
(g1467
g313
Ntp2970
Rp2971
(dp2972
g1471
g1194
sg1472
g1529
sg337
g1216
sbsS'IwDebugPrim.h'
p2973
g311
(g1467
g313
Ntp2974
Rp2975
(dp2976
g1471
g1294
sg1472
g1601
sg337
g1292
sbsS'IwGxFontContainer.h'
p2977
g311
(g1467
g313
Ntp2978
Rp2979
(dp2980
g1471
g1172
sg1472
g1473
sg337
g1185
sbsS'IwGeomSVec3.h'
p2981
g311
(g1467
g313
Ntp2982
Rp2983
(dp2984
g1471
g1194
sg1472
g1529
sg337
g1228
sbsS'cassert'
p2985
g311
(g1467
g313
Ntp2986
Rp2987
(dp2988
g1471
g1479
sg1472
g1480
sg337
S'c:/marmalade/7.4/s3e/h/std/c++/cassert'
p2989
sbsS'IwGeomFVec3.h'
p2990
g311
(g1467
g313
Ntp2991
Rp2992
(dp2993
g1471
g1194
sg1472
g1529
sg337
g1254
sbsS'streambuf'
p2994
g311
(g1467
g313
Ntp2995
Rp2996
(dp2997
g1471
g1479
sg1472
g1480
sg337
S'c:/marmalade/7.4/s3e/h/std/c++/streambuf'
p2998
sbsS's3eMetrics.h'
p2999
g311
(g1467
g313
Ntp3000
Rp3001
(dp3002
g1471
g1479
sg1472
g1684
sg337
S'c:/marmalade/7.4/s3e/h/ext/s3eMetrics.h'
p3003
sbsS'IwGxFont.h'
p3004
g311
(g1467
g313
Ntp3005
Rp3006
(dp3007
g1471
g1172
sg1472
g1473
sg337
g1177
sbsS's3eSecureStorage.h'
p3008
g311
(g1467
g313
Ntp3009
Rp3010
(dp3011
g1471
g1479
sg1472
g1495
sg337
S'c:/marmalade/7.4/s3e/h/s3eSecureStorage.h'
p3012
sbsS'string.h'
p3013
g311
(g1467
g313
Ntp3014
Rp3015
(dp3016
g1471
g1479
sg1472
g1501
sg337
S'c:/marmalade/7.4/s3e/h/std/string.h'
p3017
sbsS'IwResource.h'
p3018
g311
(g1467
g313
Ntp3019
Rp3020
(dp3021
g1471
g1348
sg1472
g1508
sg337
g1363
sbsS'IwGeomSVec2.h'
p3022
g311
(g1467
g313
Ntp3023
Rp3024
(dp3025
g1471
g1194
sg1472
g1529
sg337
g1248
sbsS'libjpeg.mkf'
p3026
g311
(g1467
g313
Ntp3027
Rp3028
(dp3029
g1471
g1089
sg1472
(lp3030
g1055
asg337
g1087
sbsS'IwGxDebug.h'
p3031
g311
(g1467
g313
Ntp3032
Rp3033
(dp3034
g1471
g1294
sg1472
g1601
sg337
g1317
sbsS'pthread_types.h'
p3035
g311
(g1467
g313
Ntp3036
Rp3037
(dp3038
g1471
g1479
sg1472
g1501
sg337
S'c:/marmalade/7.4/s3e/h/std/pthread_types.h'
p3039
sbsS'iomanip.h'
p3040
g311
(g1467
g313
Ntp3041
Rp3042
(dp3043
g1471
g1479
sg1472
g1480
sg337
S'c:/marmalade/7.4/s3e/h/std/c++/iomanip.h'
p3044
sbsS'IwKeymap.h'
p3045
g311
(g1467
g313
Ntp3046
Rp3047
(dp3048
g1471
g1348
sg1472
g1508
sg337
g1427
sbsS'IwDebug.h'
p3049
g311
(g1467
g313
Ntp3050
Rp3051
(dp3052
g1471
g1348
sg1472
g1508
sg337
g1355
sbsS's3eIOSBackgroundAudio.h'
p3053
g311
(g1467
g313
Ntp3054
Rp3055
(dp3056
g1471
g1479
sg1472
g1684
sg337
S'c:/marmalade/7.4/s3e/h/ext/s3eIOSBackgroundAudio.h'
p3057
sbsS'IwGeomMenu.h'
p3058
g311
(g1467
g313
Ntp3059
Rp3060
(dp3061
g1471
g1194
sg1472
g1529
sg337
g1208
sbsS'IwDivTable.h'
p3062
g311
(g1467
g313
Ntp3063
Rp3064
(dp3065
g1471
g1348
sg1472
g1508
sg337
g1357
sbsS'ctype.h'
p3066
g311
(g1467
g313
Ntp3067
Rp3068
(dp3069
g1471
g1479
sg1472
g1501
sg337
S'c:/marmalade/7.4/s3e/h/std/ctype.h'
p3070
sbsS'IwGeomMat.h'
p3071
g311
(g1467
g313
Ntp3072
Rp3073
(dp3074
g1471
g1194
sg1472
g1529
sg337
g1230
sbsS'IwResGroup.h'
p3075
g311
(g1467
g313
Ntp3076
Rp3077
(dp3078
g1471
g1270
sg1472
g1725
sg337
g1271
sbsS'signal_1.h'
p3079
g311
(g1467
g313
Ntp3080
Rp3081
(dp3082
g1471
g1479
sg1472
g1615
sg337
S'c:/marmalade/7.4/s3e/h/std/sys/signal.h'
p3083
sbsS'main.cpp'
p3084
g311
(g1467
g313
Ntp3085
Rp3086
(dp3087
g1471
g1094
sg1472
g1708
sg337
g1092
sbsS'shm.h'
p3088
g311
(g1467
g313
Ntp3089
Rp3090
(dp3091
g1471
g1479
sg1472
g1615
sg337
S'c:/marmalade/7.4/s3e/h/std/sys/shm.h'
p3092
sbsS'IwManagedList.h'
p3093
g311
(g1467
g313
Ntp3094
Rp3095
(dp3096
g1471
g1348
sg1472
g1508
sg337
g1375
sbsS'prctl.h'
p3097
g311
(g1467
g313
Ntp3098
Rp3099
(dp3100
g1471
g1479
sg1472
g1615
sg337
S'c:/marmalade/7.4/s3e/h/std/sys/prctl.h'
p3101
sbsS'un.h'
p3102
g311
(g1467
g313
Ntp3103
Rp3104
(dp3105
g1471
g1479
sg1472
g1615
sg337
S'c:/marmalade/7.4/s3e/h/std/sys/un.h'
p3106
sbsS'temp_defines_debug.h'
p3107
g311
(g1467
g313
Ntp3108
Rp3109
(dp3110
g1471
(lp3111
sg1472
(lp3112
g2672
asg337
S'c:/Marmalade/7.4/examples/GameTutorial/CPP/Stage1/build_stage1_vc10x/temp_defines_debug.h'
p3113
sbsS'utility'
p3114
g311
(g1467
g313
Ntp3115
Rp3116
(dp3117
g1471
g1479
sg1472
g1480
sg337
S'c:/marmalade/7.4/s3e/h/std/c++/utility'
p3118
sbsS'IwGeomLegacy.h'
p3119
g311
(g1467
g313
Ntp3120
Rp3121
(dp3122
g1471
g1194
sg1472
g1529
sg337
g1236
sbsS'IwTPage.h'
p3123
g311
(g1467
g313
Ntp3124
Rp3125
(dp3126
g1471
g1294
sg1472
g1601
sg337
g1313
sbsS'IwResSerialise.h'
p3127
g311
(g1467
g313
Ntp3128
Rp3129
(dp3130
g1471
g1270
sg1472
g1725
sg337
g1277
sbsS's3eCrypto.h'
p3131
g311
(g1467
g313
Ntp3132
Rp3133
(dp3134
g1471
g1479
sg1472
g1495
sg337
S'c:/marmalade/7.4/s3e/h/s3eCrypto.h'
p3135
sbsS's3eKeyboard.h'
p3136
g311
(g1467
g313
Ntp3137
Rp3138
(dp3139
g1471
g1479
sg1472
g1495
sg337
S'c:/marmalade/7.4/s3e/h/s3eKeyboard.h'
p3140
sbsS'fcntl.h'
p3141
g311
(g1467
g313
Ntp3142
Rp3143
(dp3144
g1471
g1479
sg1472
g1501
sg337
S'c:/marmalade/7.4/s3e/h/std/fcntl.h'
p3145
sbsS'memory.h'
p3146
g311
(g1467
g313
Ntp3147
Rp3148
(dp3149
g1471
g1479
sg1472
g1501
sg337
S'c:/marmalade/7.4/s3e/h/std/memory.h'
p3150
sbsS'pthread.h'
p3151
g311
(g1467
g313
Ntp3152
Rp3153
(dp3154
g1471
g1479
sg1472
g1501
sg337
S'c:/marmalade/7.4/s3e/h/std/pthread.h'
p3155
sbsS'IwGeomIntersect.h'
p3156
g311
(g1467
g313
Ntp3157
Rp3158
(dp3159
g1471
g1194
sg1472
g1529
sg337
g1246
sbsS'algorithm'
p3160
g311
(g1467
g313
Ntp3161
Rp3162
(dp3163
g1471
g1479
sg1472
g1480
sg337
S'c:/marmalade/7.4/s3e/h/std/c++/algorithm'
p3164
sbsS'egl_1.h'
p3165
g311
(g1467
g313
Ntp3166
Rp3167
(dp3168
g1471
g1479
sg1472
g2014
sg337
S'c:/marmalade/7.4/s3e/h/GLES/egl.h'
p3169
sbsS'ostream.h'
p3170
g311
(g1467
g313
Ntp3171
Rp3172
(dp3173
g1471
g1479
sg1472
g1480
sg337
S'c:/marmalade/7.4/s3e/h/std/c++/ostream.h'
p3174
sbsS'stl_user_config.h'
p3175
g311
(g1467
g313
Ntp3176
Rp3177
(dp3178
g1471
g1479
sg1472
g1480
sg337
S'c:/marmalade/7.4/s3e/h/std/c++/stl_user_config.h'
p3179
sbsS'IwProfileMenu.h'
p3180
g311
(g1467
g313
Ntp3181
Rp3182
(dp3183
g1471
g1348
sg1472
g1508
sg337
g1373
sbsS'MarmaladeVersion.h'
p3184
g311
(g1467
g313
Ntp3185
Rp3186
(dp3187
g1471
g1479
sg1472
g1495
sg337
S'c:/marmalade/7.4/s3e/h/MarmaladeVersion.h'
p3188
sbsS'gl3platform.h'
p3189
g311
(g1467
g313
Ntp3190
Rp3191
(dp3192
g1471
g1479
sg1472
g1772
sg337
S'c:/marmalade/7.4/s3e/h/GLES3/gl3platform.h'
p3193
sbsS'ios.h'
p3194
g311
(g1467
g313
Ntp3195
Rp3196
(dp3197
g1471
g1479
sg1472
g1480
sg337
S'c:/marmalade/7.4/s3e/h/std/c++/ios.h'
p3198
sbsS'IwImageHelper.h'
p3199
g311
(g1467
g313
Ntp3200
Rp3201
(dp3202
g1471
g1348
sg1472
g1508
sg337
g1405
sbsS'hash_set'
p3203
g311
(g1467
g313
Ntp3204
Rp3205
(dp3206
g1471
g1479
sg1472
g1480
sg337
S'c:/marmalade/7.4/s3e/h/std/c++/hash_set'
p3207
sbsS'IwGeomFQuat.h'
p3208
g311
(g1467
g313
Ntp3209
Rp3210
(dp3211
g1471
g1194
sg1472
g1529
sg337
g1206
sbsS'jmorecfg.h'
p3212
g311
(g1467
g313
Ntp3213
Rp3214
(dp3215
g1471
g1060
sg1472
g1559
sg337
g1085
sbsS'eglplatform.h'
p3216
g311
(g1467
g313
Ntp3217
Rp3218
(dp3219
g1471
g1479
sg1472
g1804
sg337
S'c:/marmalade/7.4/s3e/h/EGL/eglplatform.h'
p3220
sbsS'cmath'
p3221
g311
(g1467
g313
Ntp3222
Rp3223
(dp3224
g1471
g1479
sg1472
g1480
sg337
S'c:/marmalade/7.4/s3e/h/std/c++/cmath'
p3225
sbsS'IwGxMetrics.h'
p3226
g311
(g1467
g313
Ntp3227
Rp3228
(dp3229
g1471
g1294
sg1472
g1601
sg337
g1325
sbsS'math_gcc.h'
p3230
g311
(g1467
g313
Ntp3231
Rp3232
(dp3233
g1471
g1479
sg1472
g1501
sg337
S'c:/marmalade/7.4/s3e/h/std/math_gcc.h'
p3234
sbsS's3eMemory.h'
p3235
g311
(g1467
g313
Ntp3236
Rp3237
(dp3238
g1471
g1479
sg1472
g1495
sg337
S'c:/marmalade/7.4/s3e/h/s3eMemory.h'
p3239
sbsS'strings.h'
p3240
g311
(g1467
g313
Ntp3241
Rp3242
(dp3243
g1471
g1479
sg1472
g1501
sg337
S'c:/marmalade/7.4/s3e/h/std/strings.h'
p3244
sbsS's3eFile.h'
p3245
g311
(g1467
g313
Ntp3246
Rp3247
(dp3248
g1471
g1479
sg1472
g1495
sg337
S'c:/marmalade/7.4/s3e/h/s3eFile.h'
p3249
sbsS'IwGxTypes.h'
p3250
g311
(g1467
g313
Ntp3251
Rp3252
(dp3253
g1471
g1294
sg1472
g1601
sg337
g1340
sbsS'cerrno'
p3254
g311
(g1467
g313
Ntp3255
Rp3256
(dp3257
g1471
g1479
sg1472
g1480
sg337
S'c:/marmalade/7.4/s3e/h/std/c++/cerrno'
p3258
sbsS'resource.h'
p3259
g311
(g1467
g313
Ntp3260
Rp3261
(dp3262
g1471
g1479
sg1472
g1615
sg337
S'c:/marmalade/7.4/s3e/h/std/sys/resource.h'
p3263
sbsS'clocale'
p3264
g311
(g1467
g313
Ntp3265
Rp3266
(dp3267
g1471
g1479
sg1472
g1480
sg337
S'c:/marmalade/7.4/s3e/h/std/c++/clocale'
p3268
sbsS'pvrtextool.mkf'
p3269
g311
(g1467
g313
Ntp3270
Rp3271
(dp3272
g1471
g1139
sg1472
g2046
sg337
g1137
sbsS'csetjmp'
p3273
g311
(g1467
g313
Ntp3274
Rp3275
(dp3276
g1471
g1479
sg1472
g1480
sg337
S'c:/marmalade/7.4/s3e/h/std/c++/csetjmp'
p3277
sbsS'netdb.h'
p3278
g311
(g1467
g313
Ntp3279
Rp3280
(dp3281
g1471
g1479
sg1472
g1501
sg337
S'c:/marmalade/7.4/s3e/h/std/netdb.h'
p3282
sbsS's3eAndroidJNI.h'
p3283
g311
(g1467
g313
Ntp3284
Rp3285
(dp3286
g1471
g1479
sg1472
g1684
sg337
S'c:/marmalade/7.4/s3e/h/ext/s3eAndroidJNI.h'
p3287
sbsS'stdexcept'
p3288
g311
(g1467
g313
Ntp3289
Rp3290
(dp3291
g1471
g1479
sg1472
g1480
sg337
S'c:/marmalade/7.4/s3e/h/std/c++/stdexcept'
p3292
sbsS'math.h'
p3293
g311
(g1467
g313
Ntp3294
Rp3295
(dp3296
g1471
g1479
sg1472
g1501
sg337
S'c:/marmalade/7.4/s3e/h/std/math.h'
p3297
sbsS'stdbool.h'
p3298
g311
(g1467
g313
Ntp3299
Rp3300
(dp3301
g1471
g1479
sg1472
g1501
sg337
S'c:/marmalade/7.4/s3e/h/std/stdbool.h'
p3302
sbsS'uio.h'
p3303
g311
(g1467
g313
Ntp3304
Rp3305
(dp3306
g1471
g1479
sg1472
g1615
sg337
S'c:/marmalade/7.4/s3e/h/std/sys/uio.h'
p3307
sbsS'IwUncopyable.h'
p3308
g311
(g1467
g313
Ntp3309
Rp3310
(dp3311
g1471
g1348
sg1472
g1508
sg337
g1397
sbssS'juice_build_type'
p3312
g4
sS'tests'
p3313
(lp3314
sS'project_name'
p3315
g319
sS'root_file'
p3316
g123
sS'current_root'
p3317
S'c:/Marmalade/7.4/examples/GameTutorial/CPP/Stage1'
p3318
sS'dependencies'
p3319
(lp3320
sS'include_paths'
p3321
(lp3322
S'c:/marmalade/7.4/modules/iw2d/h'
p3323
aS'c:/marmalade/7.4/modules/iwgx/h'
p3324
aS'c:/marmalade/7.4/modules/iwgl/h'
p3325
aS'c:/marmalade/7.4/modules/iwutil/h'
p3326
aS'c:/marmalade/7.4/modules/third_party/libjpeg/h'
p3327
aS'c:/marmalade/7.4/modules/third_party/zlib/h'
p3328
aS'c:/marmalade/7.4/modules/third_party/libpng/h'
p3329
aS'c:/marmalade/7.4/modules/iwgeom/h'
p3330
aS'c:/marmalade/7.4/modules/iwresmanager/h'
p3331
aS'c:/marmalade/7.4/extensions/pvrtextool/h'
p3332
aS'c:/marmalade/7.4/modules/iwgxfont/h'
p3333
aS'c:/marmalade/7.4/modules/third_party/tiniconv/source'
p3334
aS'c:/marmalade/7.4/examples/gametutorial/cpp/stage1/libs/cjson-for-marmalade'
p3335
aS'c:/marmalade/7.4/s3e/h'
p3336
aS'c:/marmalade/7.4/s3e/h/ext'
p3337
aS'c:/marmalade/7.4/s3e/h/std'
p3338
aS'c:/marmalade/7.4/s3e/h/std/c++'
p3339
aS'c:/marmalade/7.4/s3e/h/ext_legacy'
p3340
aS'c:/marmalade/7.4/s3e/h/legacy'
p3341
asS'weak_frameworks'
p3342
(lp3343
sS'extprojects'
p3344
(dp3345
sg573
(dp3346
g567
(lp3347
(S'c:/Marmalade/7.4/examples/GameTutorial/CPP/Stage1/data/textures'
p3348
S'textures'
p3349
I0
tp3350
assS'macro_types'
p3351
(dp3352
g510
I1
sg511
I0
sg512
I0
sg513
I0
sg514
I0
sg515
I0
sg516
I0
sg517
I0
sg518
I0
sg519
I0
sg521
I0
sg522
I0
sg523
I0
sg524
I0
sg526
I0
sg528
I0
sg529
I0
sg530
I0
sg531
I0
sg532
I0
sg533
I1
sg534
I0
sg535
I0
sg536
I0
sg537
I01
sg538
I1
sg539
I0
sg540
I0
sg541
I0
sg542
I0
sg544
I0
sg545
I0
ssS'commands'
p3353
(lp3354
sg575
(g1036
S'VC10X'
p3355
S'X86ARM'
p3356
tp3357
sS'build_libs'
p3358
(dp3359
sg577
g0
sS'frameworks'
p3360
(lp3361
sS'environ'
p3362
(dp3363
sS'target_name_debug'
p3364
g319
sS'builders'
p3365
(dp3366
g567
(dp3367
S'.S'
p3368
(dp3369
S'rvct'
p3370
(lp3371
S'.obj'
p3372
aS'echo ARM Assembling(RVCT) ${SOURCE}...'
p3373
aS'c:/marmalade/7.4/s3e\\rvct\\bin\\armasm -o ${TARGET} ${SOURCE}'
p3374
asg433
(lp3375
g3372
aS'echo ARM Assembling(GCC) ${SOURCE}...'
p3376
aS'c:/marmalade/7.4/s3e\\gcc\\bin\\arm-none-eabi-gcc -c -o ${TARGET} ${SOURCE}'
p3377
asS'ppu'
p3378
(lp3379
S'.a'
p3380
aS'echo PPU Assembling(SNC) ${SOURCE}...'
p3381
aS'c:/marmalade/7.4/s3e\\rvct\\bin\\armasm -o ${TARGET} ${SOURCE}'
p3382
assS'.s'
p3383
g3369
sS'.vp'
p3384
(lp3385
NaS'"C:/Marmalade/7.4/s3e/python/python.exe" "c:/marmalade/7.4/modules/iwgx/tools/compile_shaders.py" ${SOURCE}'
p3386
asssS'extproject_names'
p3387
(lp3388
sbtp3389
.